(dp0
V\u8000
p1
I3294
sV\u6d89
p2
I10779
sV\u8c08
p3
I25958
sV\u4f0a
p4
I17792
sV\u9810
p5
I16
sV\u8599
p6
I2
sV\u4e9f
p7
I484
sV\u6d1e
p8
I5895
sV\u54a3
p9
I77
sV\u7322
p10
I14
sV\u7926
p11
I1
sV\u60ab
p12
I6
sV\u7f2a
p13
I419
sV\u6cb3
p14
I20946
sV\u4e34
p15
I22410
sV\u72b7
p16
I132
sV\u5438
p17
I18646
sV\u78bb
p18
I1
sV\u5a3c
p19
I310
sV\u7ebf
p20
I60091
sV\u6644
p21
I1
sV\u53cd
p22
I66003
sV\u724c
p23
I43177
sV\u96cf
p24
I468
sV\u59d1
p25
I2738
sV\u7850
p26
I16
sV\u7e54
p27
I1
sV\u9060
p28
I4
sV\u5362
p29
I4372
sV\u77e5
p30
I83851
sV\u9664
p31
I37382
sV\u5f6a
p32
I2026
sV\u6b72
p33
I7
sV\u52f7
p34
I1
sV\u95f9
p35
I4082
sV\u777a
p36
I2
sV\u5eff
p37
I144
sV\u8986
p38
I4547
sV\u8f8a
p39
I7
sV\u5e94
p40
I130294
sV\u881b
p41
I1
sV\u8e1f
p42
I3
sV\u5121
p43
I93
sV\u5d29
p44
I1222
sV\u82ac
p45
I2785
sV\u51b6
p46
I811
sV\u94b8
p47
I1
sV\u9abc
p48
I534
sV\u8d49
p49
I14
sV\u6e5f
p50
I18
sV\u56e4
p51
I343
sV\u5ce8
p52
I410
sV\u62ec
p53
I29252
sV\u68f0
p54
I8
sV\u8c73
p55
I3
sV\u6ef4
p56
I1927
sV\u987b
p57
I28458
sV\u5b7d
p58
I187
sV\u9e7f
p59
I1835
sV\u6c89
p60
I8530
sV\u4e0a
p61
I463474
sV\u728d
p62
I5
sV\u540e
p63
I250813
sV\u7891
p64
I2772
sV\u9910
p65
I11980
sV\u6016
p66
I2992
sV\u8499
p67
I8797
sV\u661a
p68
I1
sV\u90a1
p69
I10
sV\u7826
p70
I15
sV\u9ca9
p71
I3
sV\u7e2a
p72
I1
sV\u67af
p73
I1135
sV\u4f34
p74
I9284
sV\u73b7
p75
I56
sV\u9036
p76
I31
sV\u5538
p77
I2
sV\u79bb
p78
I30219
sV\u7fbf
p79
I75
sV\u52cd
p80
I1
sV\u58d1
p81
I126
sV\u7950
p82
I70
sV\u5ed5
p83
I1
sV\u7f54
p84
I100
sV\u8b5c
p85
I1
sV\u76e5
p86
I43
sV\u88f1
p87
I36
sV\u53f7
p88
I46665
sV\u7076
p89
I718
sV\u59fb
p90
I3133
sV\u9afd
p91
I1
sV\u5fff
p92
I138
sV\u8282
p93
I55293
sV\u8886
p94
I19
sV\u538c
p95
I2252
sV\u948e
p96
I18
sV\u9a92
p97
I3
sV\u8317
p98
I108
sV\u891b
p99
I38
sV\u5021
p100
I3147
sV\u71a0
p101
I200
sV\u9523
p102
I568
sV\u6831
p103
I1
sV\u7a3d
p104
I851
sV\u62c2
p105
I332
sV\u8c49
p106
I36
sV\u514b
p107
I53324
sV\u574f
p108
I10236
sV\u9e55
p109
I10
sV\u80d6
p110
I2419
sV\u6f5f
p111
I6
sV\u8cde
p112
I3
sV\u51e0
p113
I64358
sV\u57e4
p114
I2
sV\u5de8
p115
I16613
sV\u8d73
p116
I35
sV\u7bfc
p117
I3
sV\u9f7f
p118
I2257
sV\u8200
p119
I59
sV\u8404
p120
I2195
sV\u6316
p121
I3440
sV\u56a3
p122
I661
sV\u7b26
p123
I11637
sV\u62ab
p124
I6746
sV\u872e
p125
I5
sV\u70b7
p126
I25
sV\u953a
p127
I65
sV\u7cbf
p128
I2
sV\u9f3e
p129
I146
sV\u6240
p130
I168804
sV\u6444
p131
I9863
sV\u704c
p132
I1494
sV\u94cf
p133
I1
sV\u67d9
p134
I2
sV\u4f5e
p135
I57
sV\u5162
p136
I418
sV\u5b66
p137
I315527
sV\u7fe9
p138
I348
sV\u9e68
p139
I2
sV\u81ed
p140
I1461
sV\u8bf1
p141
I3986
sV\u4ef3
p142
I1
sV\u8df5
p143
I5518
sV\u757a
p144
I1
sV\u6603
p145
I7
sV\u8182
p146
I6
sV\u6807
p147
I74931
sV\u4e88
p148
I12999
sV\u8d8a
p149
I52188
sV\u740f
p150
I104
sV\u9992
p151
I300
sV\u5c94
p152
I251
sV\u8017
p153
I7626
sV\u8c1f
p154
I90
sV\u5321
p155
I1185
sV\u72a0
p156
I1
sV\u5f29
p157
I451
sV\u7ea8
p158
I60
sV\u8ab0
p159
I1
sV\u6d35
p160
I107
sV\u8cb4
p161
I2
sV\u53b6
p162
I6
sV\u793d
p163
I25
sV\u61c2
p164
I5678
sV\u8f49
p165
I1
sV\u524b
p166
I1
sV\u914d
p167
I35512
sV\u9b51
p168
I8
sV\u79d2
p169
I7381
sV\u83d6
p170
I29
sV\u6a5b
p171
I1
sV\u6c5f
p172
I34600
sV\u8fde
p173
I40195
sV\u7663
p174
I150
sV\u5ee8
p175
I4
sV\u60ec
p176
I315
sV\u76f8
p177
I125665
sV\u9a7b
p178
I7893
sV\u597d
p179
I137009
sV\u9c7f
p180
I278
sV\u8300
p181
I6
sV\u6485
p182
I35
sV\u6e89
p183
I121
sV\u8f08
p184
I1
sV\u560e
p185
I301
sV\u7a91
p186
I397
sV\u7c95
p187
I111
sV\u6216
p188
I86410
sV\u57a3
p189
I255
sV\u94a5
p190
I705
sV\u7c2a
p191
I77
sV\u65af
p192
I78659
sV\u6fb3
p193
I8681
sV\u8832
p194
I2
sV\u71b7
p195
I1
sV\u593c
p196
I1
sV\u9e3e
p197
I106
sV\u89c7
p198
I18
sV\u714c
p199
I2355
sV\u7b50
p200
I234
sV\u66d9
p201
I680
sV\u895c
p202
I6
sV\u4e5e
p203
I640
sV\u72e1
p204
I357
sV\u7ee9
p205
I24196
sV\u80ed
p206
I64
sV\u666e
p207
I33637
sV\u4ff3
p208
I9
sV\u7276
p209
I20
sV\u96f9
p210
I46
sV\u5bfb
p211
I10610
sV\u5dff
p212
I147
sV\u6703
p213
I9
sV\u4f88
p214
I1078
sV\u730b
p215
I1
sV\u8c8a
p216
I4
sV\u518c
p217
I9573
sV\u968e
p218
I1
sV\u7f13
p219
I7614
sV\u6798
p220
I1
sV\u699c
p221
I4549
sV\u8d1f
p222
I38380
sV\u73a0
p223
I22
sV\u75a4
p224
I376
sV\u5e29
p225
I1
sV\u6a31
p226
I944
sV\u8bb0
p227
I93182
sV\u6c35
p228
I20
sV\u8db4
p229
I393
sV\u97b8
p230
I1
sV\u5ebe
p231
I48
sV\u8445
p232
I1
sV\u8e49
p233
I37
sV\u6cca
p234
I1823
sV\u904d
p235
I11339
sV\u554f
p236
I1
sV\u76ce
p237
I499
sV\u5f53
p238
I143116
sV\u53e0
p239
I1529
sV\u7763
p240
I10418
sV\u90e2
p241
I37
sV\u55e4
p242
I119
sV\u7967
p243
I5
sV\u9ae6
p244
I527
sV\u836b
p245
I367
sV\u8f73
p246
I15
sV\u9177
p247
I3124
sV\u5679
p248
I4
sV\u77f8
p249
I32
sV\u587d
p250
I15
sV\u6581
p251
I1
sV\u8204
p252
I8
sV\u6989
p253
I10
sV\u960c
p254
I2
sV\u7b95
p255
I51
sV\u631a
p256
I349
sV\u50a3
p257
I225
sV\u5ea7
p258
I17569
sV\u64ab
p259
I1
sV\u7b2a
p260
I7
sV\u68b3
p261
I949
sV\u9536
p262
I24
sV\u5e3c
p263
I94
sV\u7abf
p264
I101
sV\u80c3
p265
I4025
sV\u6848
p266
I51633
sV\u94cb
p267
I19
sV\u764c
p268
I7866
sV\u98d3
p269
I260
sV\u8058
p270
I21940
sV\u8e5c
p271
I1
sV\u73e5
p272
I12
sV\u9264
p273
I6
sV\u79e9
p274
I2257
sV\u5b6a
p275
I79
sV\u8df1
p276
I2
sV\u6f72
p277
I2
sV\u8bf5
p278
I875
sV\u7576
p279
I12
sV\u5cfb
p280
I1832
sV\u6003
p281
I2
sV\u8782
p282
I97
sV\u8b8a
p283
I4
sV\u5c90
p284
I124
sV\u5a94
p285
I1
sV\u8c1b
p286
I210
sV\u4f1d
p287
I1
sV\u6e9c
p288
I1014
sV\u74a0
p289
I10
sV\u9023
p290
I3
sV\u72a4
p291
I1
sV\u5929
p292
I148723
sV\u672d
p293
I215
sV\u86ac
p294
I15
sV\u6d31
p295
I112
sV\u90b8
p296
I283
sV\u9ebc
p297
I10
sV\u59be
p298
I606
sV\u4e47
p299
I5
sV\u6dc6
p300
I398
sV\u544b
p301
I25
sV\u71ce
p302
I151
sV\u7fd2
p303
I1
sV\u6657
p304
I133
sV\u6c5b
p305
I88
sV\u6a5f
p306
I4
sV\u89de
p307
I31
sV\u52e4
p308
I8236
sV\u846b
p309
I304
sV\u826f
p310
I21082
sV\u6cf0
p311
I10306
sV\u9677
p312
I6748
sV\u5179
p313
I3128
sV\u5f7d
p314
I1
sV\u7efc
p315
I14453
sV\u9a7f
p316
I279
sV\u8304
p317
I488
sV\u7c91
p318
I260
sV\u7a95
p319
I60
sV\u621a
p320
I1516
sV\u94a1
p321
I39
sV\u7622
p322
I154
sV\u7c26
p323
I2
sV\u65ab
p324
I19
sV\u7a2a
p325
I1
sV\u7dbb
p326
I1
sV\u5f3c
p327
I350
sV\u81c3
p328
I99
sV\u8fc7
p329
I221903
sV\u774c
p330
I1
sV\u7b54
p331
I21490
sV\u8158
p332
I2
sV\u5662
p333
I228
sV\u9968
p334
I60
sV\u5a6a
p335
I214
sV\u86ed
p336
I10
sV\u6e72
p337
I8
sV\u7476
p338
I582
sV\u727a
p339
I2115
sV\u5bff
p340
I4061
sV\u8682
p341
I383
sV\u750b
p342
I1
sV\u8a8a
p343
I36
sV\u9e92
p344
I126
sV\u8717
p345
I162
sV\u4e1d
p346
I6033
sV\u6f9c
p347
I886
sV\u5421
p348
I23
sV\u75a0
p349
I8
sV\u9123
p350
I15
sV\u5225
p351
I12
sV\u79a8
p352
I1
sV\u662d
p353
I1588
sV\u4eb2
p354
I24467
sV\u6a35
p355
I129
sV\u8bb4
p356
I78
sV\u4f47
p357
I1
sV\u964d
p358
I37125
sV\u534f
p359
I32804
sV\u7ed2
p360
I607
sV\u84d6
p361
I32
sV\u6b5f
p362
I1
sV\u96e2
p363
I4
sV\u53e4
p364
I25682
sV\u59e8
p365
I540
sV\u67ec
p366
I598
sV\u836f
p367
I59529
sV\u5e7d
p368
I2309
sV\u7ffc
p369
I4455
sV\u6781
p370
I37296
sV\u8004
p371
I36
sV\u6b89
p372
I370
sV\u8a08
p373
I3
sV\u7f91
p374
I5
sV\u5d12
p375
I2
sV\u4e9b
p376
I134979
sV\u611a
p377
I1116
sV\u8d9d
p378
I1
sV\u52a3
p379
I3363
sV\u7522
p380
I6
sV\u7f26
p381
I2
sV\u66ab
p382
I4
sV\u60af
p383
I153
sV\u4e30
p384
I18881
sV\u8d32
p385
I58
sV\u5238
p386
I18905
sV\u7ebb
p387
I1
sV\u5c3c
p388
I25722
sV\u8cc7
p389
I6
sV\u55cd
p390
I2
sV\u90cf
p391
I2
sV\u5fd1
p392
I137
sV\u9ad3
p393
I918
sV\u8258
p394
I5949
sV\u6ddd
p395
I8
sV\u71e5
p396
I1810
sV\u5f66
p397
I1167
sV\u596a
p398
I1
sV\u636e
p399
I100387
sV\u5efb
p400
I1
sV\u717a
p401
I7
sV\u7b7e
p402
I16910
sV\u6c07
p403
I42
sV\u8f86
p404
I24761
sV\u898a
p405
I1
sV\u548c
p406
I426909
sV\u700f
p407
I1
sV\u5e90
p408
I939
sV\u6298
p409
I11570
sV\u70a4
p410
I5
sV\u7aa8
p411
I3
sV\u6f31
p412
I522
sV\u88b4
p413
I10
sV\u5bbe
p414
I7786
sV\u65c2
p415
I2
sV\u8b49
p416
I27
sV\u69ca
p417
I19
sV\u954d
p418
I249
sV\u504f
p419
I9702
sV\u9f51
p420
I8
sV\u7dd2
p421
I1
sV\u9955
p422
I60
sV\u6e5b
p423
I868
sV\u8bde
p424
I3943
sV\u56e0
p425
I139369
sV\u866b
p426
I2964
sV\u99ea
p427
I2
sV\u806f
p428
I10
sV\u8a73
p429
I3
sV\u72f8
p430
I537
sV\u987f
p431
I10842
sV\u8700
p432
I595
sV\u950c
p433
I1033
sV\u520e
p434
I18
sV\u9f10
p435
I14
sV\u9914
p436
I1
sV\u8299
p437
I473
sV\u4f9b
p438
I50626
sV\u53a3
p439
I1
sV\u7422
p440
I641
sV\u67ab
p441
I652
sV\u4f30
p442
I11660
sV\u6bb3
p443
I20
sV\u8c32
p444
I38
sV\u9636
p445
I21733
sV\u6740
p446
I15601
sV\u6144
p447
I3
sV\u97cb
p448
I3
sV\u54cd
p449
I39558
sV\u754c
p450
I62472
sV\u91cf
p451
I112618
sV\u5ed1
p452
I2
sV\u7f50
p453
I1041
sV\u58d5
p454
I189
sV\u7954
p455
I1
sV\u62d9
p456
I377
sV\u8358
p457
I3
sV\u8d5c
p458
I5
sV\u9760
p459
I15943
sV\u5462
p460
I21385
sV\u70e5
p461
I1
sV\u9164
p462
I2
sV\u626e
p463
I2700
sV\u6c72
p464
I391
sV\u88f5
p465
I1
sV\u55f7
p466
I113
sV\u5ffb
p467
I121
sV\u59ff
p468
I3700
sV\u8482
p469
I4782
sV\u6d07
p470
I2
sV\u770b
p471
I116377
sV\u5f90
p472
I7480
sV\u9c92
p473
I2
sV\u8517
p474
I223
sV\u6398
p475
I3271
sV\u77a0
p476
I162
sV\u9323
p477
I1
sV\u5025
p478
I8
sV\u5a29
p479
I472
sV\u642d
p480
I5747
sV\u8fb0
p481
I870
sV\u7239
p482
I366
sV\u7c3d
p483
I7
sV\u5abe
p484
I50
sV\u64c2
p485
I265
sV\u72ce
p486
I98
sV\u9e51
p487
I83
sV\u5b53
p488
I1
sV\u7cd2
p489
I1
sV\u80da
p490
I489
sV\u57e0
p491
I413
sV\u94e2
p492
I139
sV\u51e4
p493
I2950
sV\u5be8
p494
I1743
sV\u65ec
p495
I2861
sV\u4e71
p496
I11879
sV\u69f4
p497
I1
sV\u9577
p498
I20
sV\u997f
p499
I1287
sV\u7b8d
p500
I144
sV\u5d0e
p501
I691
sV\u9010
p502
I17975
sV\u9614
p503
I3417
sV\u5ca3
p504
I2
sV\u7126
p505
I6613
sV\u6eaf
p506
I907
sV\u8d2e
p507
I352
sV\u8332
p508
I2
sV\u5c38
p509
I2611
sV\u70bb
p510
I1
sV\u76bf
p511
I124
sV\u953e
p512
I1
sV\u6840
p513
I74
sV\u4fc5
p514
I33
sV\u6e44
p515
I105
sV\u82c7
p516
I159
sV\u6448
p517
I81
sV\u9ecf
p518
I805
sV\u51d1
p519
I1843
sV\u7654
p520
I35
sV\u6dd9
p521
I25
sV\u4f5a
p522
I72
sV\u5b62
p523
I261
sV\u7fe5
p524
I11
sV\u9e64
p525
I991
sV\u576a
p526
I785
sV\u8bed
p527
I47959
sV\u6d6e
p528
I4930
sV\u6372
p529
I1
sV\u50fb
p530
I543
sV\u56ff
p531
I67
sV\u5a8c
p532
I1
sV\u7413
p533
I1
sV\u5694
p534
I2
sV\u8a17
p535
I1
sV\u861f
p536
I1
sV\u5f25
p537
I2721
sV\u7ea4
p538
I2467
sV\u74a8
p539
I159
sV\u6735
p540
I2654
sV\u86b4
p541
I5
sV\u7d39
p542
I1
sV\u9cb8
p543
I647
sV\u55be
p544
I8
sV\u8941
p545
I39
sV\u6bc2
p546
I189
sV\u8549
p547
I443
sV\u9b4d
p548
I2
sV\u5453
p549
I27
sV\u665f
p550
I103
sV\u7267
p551
I1910
sV\u54e8
p552
I1119
sV\u886b
p553
I757
sV\u97ea
p554
I40
sV\u60f0
p555
I410
sV\u8473
p556
I37
sV\u66f4
p557
I107100
sV\u9a77
p558
I24
sV\u7cf8
p559
I10
sV\u72fc
p560
I2377
sV\u6881
p561
I6141
sV\u6e85
p562
I284
sV\u7a8d
p563
I563
sV\u5c0e
p564
I1
sV\u5212
p565
I49490
sV\u6816
p566
I1540
sV\u6e1a
p567
I92
sV\u829d
p568
I2028
sV\u641e
p569
I8527
sV\u98a1
p570
I7
sV\u9ea5
p571
I6
sV\u94a9
p572
I1350
sV\u69ab
p573
I23
sV\u762a
p574
I138
sV\u8c2e
p575
I8
sV\u8232
p576
I1
sV\u9e3a
p577
I1
sV\u77bf
p578
I270
sV\u943e
p579
I1
sV\u8dc3
p580
I6603
sV\u4ec5
p581
I45465
sV\u6f44
p582
I1
sV\u83c7
p583
I439
sV\u6548
p584
I47088
sV\u7b4c
p585
I1
sV\u7150
p586
I1
sV\u95d3
p587
I1
sV\u6cd9
p588
I1
sV\u8d58
p589
I263
sV\u835c
p590
I9
sV\u78e1
p591
I11
sV\u5a62
p592
I122
sV\u7ee5
p593
I335
sV\u9568
p594
I1
sV\u566a
p595
I1909
sV\u4fef
p596
I762
sV\u80f1
p597
I362
sV\u51fb
p598
I40723
sV\u747e
p599
I417
sV\u4f84
p600
I421
sV\u6307
p601
I67476
sV\u8086
p602
I1286
sV\u868a
p603
I422
sV\u5b8c
p604
I61001
sV\u9c8e
p605
I5
sV\u7513
p606
I6
sV\u5821
p607
I5113
sV\u7fa4
p608
I23363
sV\u5429
p609
I190
sV\u8bac
p610
I7
sV\u6635
p611
I205
sV\u723d
p612
I1615
sV\u93bc
p613
I1
sV\u60c6
p614
I74
sV\u594b
p615
I6470
sV\u9051
p616
I76
sV\u5553
p617
I1
sV\u72d2
p618
I82
sV\u9655
p619
I2440
sV\u675f
p620
I14274
sV\u7d63
p621
I1
sV\u5fe4
p622
I40
sV\u90e6
p623
I50
sV\u55e8
p624
I120
sV\u96ea
p625
I12665
sV\u6bec
p626
I1
sV\u8f6f
p627
I25698
sV\u61f0
p628
I1
sV\u67f4
p629
I4250
sV\u5c79
p630
I343
sV\u527d
p631
I204
sV\u977f
p632
I1
sV\u6b81
p633
I45
sV\u8a00
p634
I38427
sV\u6d85
p635
I1064
sV\u8c04
p636
I56
sV\u6789
p637
I463
sV\u7391
p638
I21
sV\u5112
p639
I2153
sV\u8f99
p640
I496
sV\u6d1a
p641
I1
sV\u819d
p642
I1044
sV\u50a7
p643
I2
sV\u6aab
p644
I1
sV\u752a
p645
I11
sV\u8132
p646
I58
sV\u5e38
p647
I97654
sV\u503c
p648
I41604
sV\u74bf
p649
I4
sV\u973e
p650
I103
sV\u9acb
p651
I70
sV\u784c
p652
I16
sV\u9ccf
p653
I7
sV\u53d1
p654
I304458
sV\u7250
p655
I1
sV\u6fd9
p656
I2
sV\u61dd
p657
I1
sV\u7be1
p658
I355
sV\u5962
p659
I1839
sV\u5366
p660
I474
sV\u77e9
p661
I2342
sV\u9668
p662
I298
sV\u556a
p663
I229
sV\u6f6e
p664
I10498
sV\u83f1
p665
I3837
sV\u7d7a
p666
I1
sV\u54ff
p667
I2
sV\u777e
p668
I603
sV\u8386
p669
I63
sV\u7a0b
p670
I91318
sV\u7c0f
p671
I3
sV\u7613
p672
I1
sV\u9192
p673
I9130
sV\u5494
p674
I77
sV\u4f19
p675
I8405
sV\u6e98
p676
I13
sV\u821b
p677
I49
sV\u7aa0
p678
I49
sV\u9e23
p679
I2860
sV\u7ca4
p680
I897
sV\u5729
p681
I69
sV\u692d
p682
I192
sV\u4fae
p683
I446
sV\u82b0
p684
I1
sV\u6535
p685
I2
sV\u84b4
p686
I3
sV\u5bb6
p687
I247342
sV\u9eb8
p688
I23
sV\u4e43
p689
I4886
sV\u8d45
p690
I75
sV\u63c6
p691
I22
sV\u8749
p692
I468
sV\u5c4f
p693
I3938
sV\u7fce
p694
I98
sV\u71d2
p695
I2
sV\u9555
p696
I40
sV\u8bd6
p697
I3
sV\u4ed8
p698
I22223
sV\u625b
p699
I511
sV\u8dda
p700
I91
sV\u5ae0
p701
I3
sV\u5ce4
p702
I11
sV\u95ea
p703
I3410
sV\u68ec
p704
I1
sV\u64f4
p705
I2
sV\u9877
p706
I570
sV\u5f79
p707
I7922
sV\u7ef8
p708
I902
sV\u517d
p709
I1770
sV\u8b00
p710
I5
sV\u6c85
p711
I88
sV\u8708
p712
I51
sV\u788d
p713
I5243
sV\u5012
p714
I15120
sV\u9514
p715
I5
sV\u6c1a
p716
I5
sV\u809d
p717
I7970
sV\u661e
p718
I3
sV\u9aa1
p719
I119
sV\u7822
p720
I1
sV\u9ca5
p721
I6
sV\u742a
p722
I680
sV\u6daf
p723
I3896
sV\u8e2e
p724
I37
sV\u67b3
p725
I28
sV\u79b7
p726
I1
sV\u73bb
p727
I2595
sV\u6748
p728
I49
sV\u7350
p729
I11
sV\u7554
p730
I617
sV\u6ed9
p731
I2
sV\u8f58
p732
I3
sV\u76e9
p733
I2
sV\u6e6e
p734
I112
sV\u82f1
p735
I50003
sV\u7a76
p736
I50718
sV\u53fb
p737
I11
sV\u90fd
p738
I174221
sV\u767e
p739
I34002
sV\u8882
p740
I117
sV\u7b0b
p741
I376
sV\u5594
p742
I176
sV\u4e19
p743
I1213
sV\u831b
p744
I1
sV\u851f
p745
I1
sV\u5a21
p746
I192
sV\u7ba0
p747
I1
sV\u5c25
p748
I5
sV\u7da4
p749
I1
sV\u9127
p750
I1
sV\u4eae
p751
I13072
sV\u6435
p752
I1
sV\u5cba
p753
I4
sV\u4f43
p754
I54
sV\u68c2
p755
I30
sV\u62c6
p756
I2445
sV\u64ca
p757
I1
sV\u984d
p758
I5
sV\u7ece
p759
I961
sV\u6957
p760
I13
sV\u4fd8
p761
I1961
sV\u86de
p762
I4
sV\u98e2
p763
I1
sV\u7167
p764
I36587
sV\u94ea
p765
I2
sV\u9977
p766
I125
sV\u5e79
p767
I1
sV\u957f
p768
I161678
sV\u8c00
p769
I69
sV\u7591
p770
I16684
sV\u5712
p771
I7
sV\u7395
p772
I13
sV\u7f22
p773
I42
sV\u7526
p774
I8
sV\u6cab
p775
I1414
sV\u732a
p776
I2691
sV\u7eb7
p777
I12576
sV\u9b3a
p778
I2
sV\u6c40
p779
I515
sV\u6a44
p780
I524
sV\u86c7
p781
I1986
sV\u5fcd
p782
I4554
sV\u55d1
p783
I56
sV\u90d3
p784
I6
sV\u69d9
p785
I3
sV\u5f62
p786
I59645
sV\u7be5
p787
I4
sV\u5566
p788
I1651
sV\u9068
p789
I111
sV\u8fed
p790
I610
sV\u696e
p791
I4
sV\u6772
p792
I26
sV\u5ef7
p793
I3102
sV\u7d76
p794
I8
sV\u52ff
p795
I775
sV\u717e
p796
I1
sV\u8f82
p797
I5
sV\u6607
p798
I68
sV\u7c0b
p799
I44
sV\u5490
p800
I384
sV\u9792
p801
I1
sV\u821f
p802
I2107
sV\u8eac
p803
I369
sV\u82b4
p804
I25
sV\u96bc
p805
I216
sV\u8d41
p806
I1328
sV\u6fc2
p807
I68
sV\u8149
p808
I21
sV\u5c4b
p809
I5306
sV\u9551
p810
I935
sV\u5053
p811
I6
sV\u8dd6
p812
I66
sV\u8bda
p813
I8845
sV\u8c6b
p814
I1692
sV\u62f4
p815
I169
sV\u5979
p816
I58403
sV\u76fc
p817
I1437
sV\u6c81
p818
I317
sV\u6089
p819
I14176
sV\u580e
p820
I1
sV\u9510
p821
I5180
sV\u4f97
p822
I144
sV\u6c16
p823
I32
sV\u869d
p824
I48
sV\u9ca1
p825
I1
sV\u59a3
p826
I24
sV\u7e22
p827
I5
sV\u9aa5
p828
I151
sV\u57a7
p829
I34
sV\u7426
p830
I669
sV\u6dab
p831
I1
sV\u722a
p832
I541
sV\u5938
p833
I2491
sV\u903e
p834
I1726
sV\u6148
p835
I2383
sV\u54d1
p836
I673
sV\u52d5
p837
I1
sV\u66dd
p838
I1285
sV\u5e62
p839
I615
sV\u7ae5
p840
I7743
sV\u5466
p841
I49
sV\u70e9
p842
I91
sV\u526a
p843
I1187
sV\u7a7a
p844
I81249
sV\u707e
p845
I4291
sV\u828a
p846
I7
sV\u5f8c
p847
I394
sV\u7b0f
p848
I16
sV\u988e
p849
I2
sV\u7113
p850
I2
sV\u5394
p851
I3
sV\u6998
p852
I32
sV\u851b
p853
I2
sV\u679c
p854
I104172
sV\u5a25
p855
I321
sV\u5029
p856
I427
sV\u71a8
p857
I77
sV\u6e2d
p858
I442
sV\u85b0
p859
I187
sV\u83b4
p860
I45
sV\u5aba
p861
I2
sV\u8c41
p862
I562
sV\u6ec2
p863
I35
sV\u5d4b
p864
I22
sV\u62ca
p865
I8
sV\u76d2
p866
I2245
sV\u655b
p867
I655
sV\u635f
p868
I17643
sV\u80de
p869
I5739
sV\u7963
p870
I1
sV\u9ee2
p871
I10
sV\u5be4
p872
I10
sV\u8d6b
p873
I4717
sV\u6fec
p874
I54
sV\u8b6f
p875
I1
sV\u65f0
p876
I1
sV\u8173
p877
I1
sV\u63f4
p878
I7698
sV\u79f8
p879
I44
sV\u6389
p880
I10329
sV\u8208
p881
I2
sV\u7791
p882
I25
sV\u9610
p883
I1266
sV\u9014
p884
I12351
sV\u631e
p885
I45
sV\u7d22
p886
I22285
sV\u99a5
p887
I56
sV\u54a7
p888
I221
sV\u7726
p889
I9
sV\u6eab
p890
I15
sV\u68af
p891
I2068
sV\u8532
p892
I3
sV\u543c
p893
I472
sV\u933e
p894
I3
sV\u6248
p895
I108
sV\u5dcd
p896
I456
sV\u98cf
p897
I1
sV\u6bd9
p898
I559
sV\u7fe1
p899
I152
sV\u5766
p900
I11530
sV\u73e9
p901
I34
sV\u4eeb
p902
I20
sV\u6572
p903
I2143
sV\u797a
p904
I271
sV\u95fd
p905
I712
sV\u737e
p906
I57
sV\u4e80
p907
I4
sV\u818a
p908
I372
sV\u5c8c
p909
I161
sV\u9592
p910
I1
sV\u8c17
p911
I63
sV\u7ea0
p912
I3865
sV\u5925
p913
I20
sV\u8cac
p914
I1
sV\u6731
p915
I6855
sV\u86b0
p916
I2
sV\u80b4
p917
I516
sV\u7b39
p918
I3
sV\u9ab8
p919
I337
sV\u94bc
p920
I73
sV\u6dc2
p921
I1
sV\u8349
p922
I9529
sV\u61ca
p923
I192
sV\u9751
p924
I1
sV\u75d2
p925
I1231
sV\u6c57
p926
I4111
sV\u89da
p927
I7
sV\u58e4
p928
I971
sV\u7467
p929
I4
sV\u97e6
p930
I2355
sV\u91ea
p931
I2
sV\u66f0
p932
I1639
sV\u8273
p933
I2460
sV\u60f4
p934
I104
sV\u907f
p935
I14480
sV\u6e81
p936
I2
sV\u6885
p937
I7461
sV\u6289
p938
I390
sV\u8308
p939
I1
sV\u7691
p940
I168
sV\u5412
p941
I14
sV\u7095
p942
I209
sV\u6e16
p943
I4
sV\u5ba3
p944
I23054
sV\u55a7
p945
I604
sV\u7626
p946
I1841
sV\u63b3
p947
I95
sV\u9e36
p948
I7
sV\u77bb
p949
I767
sV\u4ec1
p950
I5319
sV\u8bc3
p951
I128
sV\u5ccd
p952
I2
sV\u7750
p953
I1652
sV\u4e56
p954
I850
sV\u8b58
p955
I1
sV\u7ee1
p956
I10
sV\u72e9
p957
I314
sV\u506a
p958
I1
sV\u8ced
p959
I2
sV\u86f1
p960
I6
sV\u5df7
p961
I1176
sV\u9af9
p962
I4
sV\u51ff
p963
I595
sV\u727e
p964
I6
sV\u8c82
p965
I167
sV\u7f0b
p966
I1
sV\u9a8e
p967
I4
sV\u7313
p968
I6
sV\u9492
p969
I58
sV\u6b98
p970
I2
sV\u871b
p971
I1
sV\u659c
p972
I2311
sV\u9b23
p973
I92
sV\u79a4
p974
I1
sV\u5229
p975
I133423
sV\u6631
p976
I207
sV\u6035
p977
I84
sV\u5eb6
p978
I370
sV\u7a39
p979
I20
sV\u95bc
p980
I1
sV\u52be
p981
I117
sV\u8e41
p982
I4
sV\u8845
p983
I417
sV\u8249
p984
I34
sV\u60ca
p985
I10591
sV\u594f
p986
I3484
sV\u5353
p987
I2716
sV\u74d2
p988
I84
sV\u82de
p989
I67
sV\u5fe0
p990
I5717
sV\u9ce2
p991
I1
sV\u59e4
p992
I1
sV\u53e8
p993
I398
sV\u8f6b
p994
I18
sV\u90ea
p995
I2
sV\u6dec
p996
I26
sV\u896f
p997
I1
sV\u67f0
p998
I6
sV\u7bf8
p999
I1
sV\u547d
p1000
I39288
sV\u75fc
p1001
I73
sV\u917f
p1002
I1503
sV\u9000
p1003
I17007
sV\u7785
p1004
I190
sV\u9604
p1005
I21
sV\u5f0a
p1006
I2085
sV\u820c
p1007
I1580
sV\u8e14
p1008
I3
sV\u7116
p1009
I86
sV\u771a
p1010
I2
sV\u5e9f
p1011
I4783
sV\u6322
p1012
I1
sV\u70ab
p1013
I930
sV\u6f2a
p1014
I149
sV\u522c
p1015
I1
sV\u952e
p1016
I12910
sV\u5830
p1017
I315
sV\u7cb3
p1018
I75
sV\u9b32
p1019
I16
sV\u8d3e
p1020
I3669
sV\u94c3
p1021
I3128
sV\u5dc9
p1022
I1
sV\u86cf
p1023
I4
sV\u6850
p1024
I476
sV\u8cd3
p1025
I2
sV\u6e54
p1026
I1
sV\u5156
p1027
I157
sV\u575a
p1028
I17333
sV\u7bdd
p1029
I89
sV\u67e5
p1030
I51202
sV\u8c68
p1031
I2
sV\u56ef
p1032
I2
sV\u7b72
p1033
I4
sV\u8bfd
p1034
I123
sV\u4eff
p1035
I5100
sV\u5080
p1036
I105
sV\u7403
p1037
I81852
sV\u5684
p1038
I2
sV\u9986
p1039
I15345
sV\u5c88
p1040
I7
sV\u9f8a
p1041
I59
sV\u660f
p1042
I1790
sV\u6c13
p1043
I546
sV\u4e94
p1044
I52228
sV\u7498
p1045
I19
sV\u7a9c
p1046
I450
sV\u9e1f
p1047
I3624
sV\u60a0
p1048
I2311
sV\u6ca8
p1049
I1
sV\u7f35
p1050
I11
sV\u6539
p1051
I69094
sV\u84b8
p1052
I1621
sV\u5443
p1053
I38
sV\u73c2
p1054
I283
sV\u79c6
p1055
I39
sV\u7fca
p1056
I58
sV\u65ce
p1057
I72
sV\u6bd2
p1058
I15094
sV\u7257
p1059
I5
sV\u5adc
p1060
I1
sV\u89e6
p1061
I8627
sV\u8fea
p1062
I16679
sV\u72ec
p1063
I29264
sV\u7ef4
p1064
I39033
sV\u8277
p1065
I1
sV\u8e7f
p1066
I147
sV\u9704
p1067
I298
sV\u5806
p1068
I3258
sV\u7c89
p1069
I4693
sV\u830c
p1070
I1
sV\u8910
p1071
I334
sV\u8f14
p1072
I15
sV\u9499
p1073
I1530
sV\u9a9d
p1074
I12
sV\u80a1
p1075
I136250
sV\u6222
p1076
I8
sV\u63b7
p1077
I686
sV\u8036
p1078
I3394
sV\u69bb
p1079
I326
sV\u634c
p1080
I18
sV\u4ed5
p1081
I826
sV\u9558
p1082
I1
sV\u5c5e
p1083
I28943
sV\u8160
p1084
I4
sV\u8764
p1085
I3
sV\u51eb
p1086
I25
sV\u57ef
p1087
I1
sV\u746e
p1088
I4
sV\u5df3
p1089
I176
sV\u6076
p1090
I9179
sV\u667a
p1091
I11843
sV\u6c7e
p1092
I244
sV\u5180
p1093
I879
sV\u5784
p1094
I2977
sV\u9886
p1095
I61052
sV\u670f
p1096
I8
sV\u4f94
p1097
I5
sV\u7b9c
p1098
I6
sV\u6da8
p1099
I19852
sV\u5ab2
p1100
I378
sV\u6a3d
p1101
I48
sV\u8bbc
p1102
I3431
sV\u9041
p1103
I177
sV\u5543
p1104
I356
sV\u72c2
p1105
I5969
sV\u9645
p1106
I64362
sV\u7eca
p1107
I532
sV\u64ce
p1108
I2234
sV\u7357
p1109
I235
sV\u795b
p1110
I341
sV\u7f5f
p1111
I3
sV\u9cde
p1112
I264
sV\u6563
p1113
I11018
sV\u6b67
p1114
I2591
sV\u79f0
p1115
I51657
sV\u8377
p1116
I4772
sV\u65f8
p1117
I24
sV\u8f7f
p1118
I13528
sV\u618d
p1119
I1
sV\u800c
p1120
I214979
sV\u6d95
p1121
I352
sV\u8c14
p1122
I11
sV\u5097
p1123
I1
sV\u7316
p1124
I312
sV\u5a9b
p1125
I237
sV\u751a
p1126
I24816
sV\u8fa9
p1127
I3008
sV\u6d2a
p1128
I4550
sV\u502c
p1129
I38
sV\u7eb3
p1130
I27398
sV\u5c34
p1131
I1928
sV\u8336
p1132
I5981
sV\u853a
p1133
I87
sV\u6cbf
p1134
I6603
sV\u53c1
p1135
I52
sV\u55c5
p1136
I497
sV\u7444
p1137
I14
sV\u82cb
p1138
I49
sV\u6a50
p1139
I5
sV\u5356
p1140
I16880
sV\u63e1
p1141
I13858
sV\u65e5
p1142
I242380
sV\u5ef3
p1143
I3
sV\u6376
p1144
I139
sV\u87f9
p1145
I667
sV\u89fd
p1146
I4
sV\u5484
p1147
I546
sV\u620b
p1148
I3
sV\u640f
p1149
I1662
sV\u9017
p1150
I677
sV\u789c
p1151
I30
sV\u62a0
p1152
I175
sV\u64a4
p1153
I4168
sV\u90ac
p1154
I213
sV\u57ae
p1155
I645
sV\u7b31
p1156
I3
sV\u9ab0
p1157
I21
sV\u59b2
p1158
I42
sV\u693d
p1159
I44
sV\u9545
p1160
I3
sV\u7bc6
p1161
I60
sV\u9f49
p1162
I1
sV\u4e53
p1163
I1249
sV\u8d55
p1164
I3
sV\u93d6
p1165
I81
sV\u6663
p1166
I2
sV\u6867
p1167
I68
sV\u8be6
p1168
I8236
sV\u4ee8
p1169
I39
sV\u8dea
p1170
I760
sV\u516d
p1171
I26164
sV\u70ec
p1172
I95
sV\u5b71
p1173
I53
sV\u9e73
p1174
I22
sV\u66f8
p1175
I12
sV\u68fc
p1176
I1
sV\u7281
p1177
I341
sV\u9504
p1178
I131
sV\u5a06
p1179
I44
sV\u5c0a
p1180
I7954
sV\u608d
p1181
I782
sV\u5197
p1182
I180
sV\u9699
p1183
I849
sV\u5b9b
p1184
I722
sV\u741a
p1185
I6
sV\u989d
p1186
I33212
sV\u82a1
p1187
I43
sV\u8ea9
p1188
I1
sV\u73ab
p1189
I986
sV\u6c2a
p1190
I10
sV\u75af
p1191
I2651
sV\u962e
p1192
I318
sV\u5d34
p1193
I79
sV\u61b7
p1194
I7
sV\u8236
p1195
I810
sV\u6dbf
p1196
I173
sV\u5ec9
p1197
I3937
sV\u614c
p1198
I1582
sV\u85cf
p1199
I11380
sV\u8fd3
p1200
I2
sV\u6d54
p1201
I73
sV\u5256
p1202
I1044
sV\u78dd
p1203
I1
sV\u5e5e
p1204
I12
sV\u8360
p1205
I36
sV\u8564
p1206
I12
sV\u6ee9
p1207
I2657
sV\u8f68
p1208
I4133
sV\u53eb
p1209
I15504
sV\u90ed
p1210
I5182
sV\u55ef
p1211
I234
sV\u6276
p1212
I3027
sV\u86f9
p1213
I40
sV\u647a
p1214
I15
sV\u88fd
p1215
I1
sV\u6e7e
p1216
I20081
sV\u9082
p1217
I127
sV\u5584
p1218
I19821
sV\u9a86
p1219
I445
sV\u5f88
p1220
I132323
sV\u6f13
p1221
I751
sV\u8892
p1222
I174
sV\u9117
p1223
I1
sV\u7798
p1224
I1
sV\u63a0
p1225
I1294
sV\u8723
p1226
I4
sV\u65a4
p1227
I3019
sV\u8927
p1228
I2
sV\u91ac
p1229
I1
sV\u7a31
p1230
I1
sV\u683d
p1231
I594
sV\u70c2
p1232
I2559
sV\u5947
p1233
I23849
sV\u9e49
p1234
I152
sV\u7cca
p1235
I3047
sV\u804d
p1236
I65
sV\u4f53
p1237
I159181
sV\u68d2
p1238
I1500
sV\u8c55
p1239
I10
sV\u7b5b
p1240
I1258
sV\u59dc
p1241
I2121
sV\u9ede
p1242
I21
sV\u4fe8
p1243
I366
sV\u8cea
p1244
I2
sV\u956f
p1245
I101
sV\u5d06
p1246
I32
sV\u9808
p1247
I2
sV\u6d91
p1248
I5
sV\u8c10
p1249
I3672
sV\u8a14
p1250
I2
sV\u5697
p1251
I1
sV\u5c9b
p1252
I18516
sV\u791e
p1253
I1
sV\u4ea7
p1254
I182905
sV\u562c
p1255
I9
sV\u72af
p1256
I12265
sV\u78b3
p1257
I1901
sV\u5a34
p1258
I305
sV\u6cbb
p1259
I53302
sV\u833a
p1260
I1
sV\u4e3c
p1261
I1
sV\u7440
p1262
I3
sV\u90c3
p1263
I7
sV\u84cb
p1264
I2
sV\u664c
p1265
I87
sV\u82cf
p1266
I25877
sV\u6c50
p1267
I43
sV\u5556
p1268
I25
sV\u71d9
p1269
I1
sV\u9058
p1270
I2
sV\u535a
p1271
I25756
sV\u9e5c
p1272
I161
sV\u8868
p1273
I135769
sV\u97ed
p1274
I214
sV\u716e
p1275
I1713
sV\u58f3
p1276
I1776
sV\u7f72
p1277
I10380
sV\u637a
p1278
I150
sV\u8ffd
p1279
I16697
sV\u5480
p1280
I332
sV\u5284
p1281
I1
sV\u620f
p1282
I14391
sV\u6813
p1283
I494
sV\u9617
p1284
I67
sV\u7098
p1285
I152
sV\u7e9c
p1286
I1
sV\u62a4
p1287
I32205
sV\u68a8
p1288
I539
sV\u772d
p1289
I10
sV\u51ae
p1290
I5
sV\u9cb0
p1291
I1
sV\u9541
p1292
I323
sV\u5043
p1293
I139
sV\u6fd2
p1294
I587
sV\u6063
p1295
I108
sV\u6e67
p1296
I1
sV\u946b
p1297
I933
sV\u576d
p1298
I19
sV\u5b75
p1299
I202
sV\u7481
p1300
I2
sV\u9500
p1301
I68364
sV\u5c06
p1302
I183517
sV\u7889
p1303
I199
sV\u9099
p1304
I25
sV\u9e9d
p1305
I74
sV\u5b9f
p1306
I1
sV\u84a1
p1307
I2
sV\u82a5
p1308
I249
sV\u4fa7
p1309
I8471
sV\u6c26
p1310
I71
sV\u75ab
p1311
I6085
sV\u6a2a
p1312
I5444
sV\u572c
p1313
I2
sV\u73af
p1314
I37910
sV\u902e
p1315
I687
sV\u79b3
p1316
I4
sV\u9e32
p1317
I2
sV\u5b34
p1318
I35
sV\u67b7
p1319
I159
sV\u4f3c
p1320
I19640
sV\u6bbf
p1321
I2905
sV\u54c1
p1322
I136433
sV\u7540
p1323
I7
sV\u7948
p1324
I706
sV\u674c
p1325
I5
sV\u83cf
p1326
I50
sV\u6d50
p1327
I492
sV\u6b54
p1328
I3
sV\u5456
p1329
I6
sV\u70d9
p1330
I304
sV\u525a
p1331
I1
sV\u7edd
p1332
I23698
sV\u585e
p1333
I9419
sV\u62e5
p1334
I17793
sV\u8364
p1335
I212
sV\u55eb
p1336
I28
sV\u53ef
p1337
I261095
sV\u6476
p1338
I2
sV\u627a
p1339
I1
sV\u5580
p1340
I942
sV\u5384
p1341
I623
sV\u7f07
p1342
I24
sV\u9c86
p1343
I1
sV\u5988
p1344
I8105
sV\u9a8a
p1345
I47
sV\u5019
p1346
I42122
sV\u7198
p1347
I12
sV\u5e1d
p1348
I14819
sV\u9b1f
p1349
I20
sV\u8123
p1350
I1
sV\u69a8
p1351
I315
sV\u6039
p1352
I2
sV\u5143
p1353
I128405
sV\u76c2
p1354
I74
sV\u94d6
p1355
I3
sV\u98de
p1356
I42099
sV\u6163
p1357
I1
sV\u8ce6
p1358
I1
sV\u956b
p1359
I15
sV\u77ec
p1360
I3
sV\u5c71
p1361
I55194
sV\u5a75
p1362
I25
sV\u9600
p1363
I893
sV\u9004
p1364
I9
sV\u840c
p1365
I696
sV\u6995
p1366
I367
sV\u711a
p1367
I611
sV\u589f
p1368
I296
sV\u7b1e
p1369
I45
sV\u8ba9
p1370
I69666
sV\u542c
p1371
I29609
sV\u70af
p1372
I255
sV\u7ab3
p1373
I2
sV\u5834
p1374
I21
sV\u64b7
p1375
I35
sV\u68bf
p1376
I3
sV\u7640
p1377
I26
sV\u9cc7
p1378
I4
sV\u86cb
p1379
I6480
sV\u4fd1
p1380
I457
sV\u6854
p1381
I277
sV\u73d9
p1382
I19
sV\u515a
p1383
I20494
sV\u56eb
p1384
I25
sV\u95ed
p1385
I5166
sV\u7d72
p1386
I1
sV\u83f9
p1387
I1
sV\u4efb
p1388
I83982
sV\u8dfd
p1389
I9
sV\u7203
p1390
I2
sV\u7c07
p1391
I225
sV\u9f86
p1392
I4
sV\u998a
p1393
I33
sV\u600f
p1394
I24
sV\u838e
p1395
I1911
sV\u6a13
p1396
I3
sV\u5319
p1397
I902
sV\u7c9c
p1398
I3
sV\u8223
p1399
I1
sV\u8c27
p1400
I125
sV\u752d
p1401
I131
sV\u53ae
p1402
I302
sV\u7f31
p1403
I14
sV\u5db2
p1404
I4
sV\u6339
p1405
I17
sV\u82b8
p1406
I256
sV\u6d3d
p1407
I1463
sV\u5243
p1408
I290
sV\u75c2
p1409
I52
sV\u9145
p1410
I1
sV\u9b49
p1411
I4
sV\u63ce
p1412
I4
sV\u6dd2
p1413
I5
sV\u8955
p1414
I2
sV\u7457
p1415
I13
sV\u52d8
p1416
I853
sV\u6263
p1417
I6994
sV\u8fe6
p1418
I263
sV\u556d
p1419
I5
sV\u906f
p1420
I1
sV\u5f71
p1421
I53615
sV\u7ef0
p1422
I500
sV\u9a73
p1423
I1076
sV\u78f4
p1424
I5
sV\u8e7b
p1425
I1
sV\u6cfc
p1426
I1141
sV\u887f
p1427
I10
sV\u7681
p1428
I1
sV\u9700
p1429
I67092
sV\u7085
p1430
I57
sV\u9104
p1431
I118
sV\u5e06
p1432
I2867
sV\u9b08
p1433
I1
sV\u850c
p1434
I3
sV\u8914
p1435
I4
sV\u5f9b
p1436
I2
sV\u701a
p1437
I315
sV\u7a1e
p1438
I85
sV\u86a1
p1439
I82
sV\u6422
p1440
I2
sV\u80a5
p1441
I6302
sV\u6e26
p1442
I1
sV\u682a
p1443
I1010
sV\u552c
p1444
I137
sV\u9c32
p1445
I1
sV\u5934
p1446
I62857
sV\u8a3e
p1447
I25
sV\u7740
p1448
I118288
sV\u50c5
p1449
I3
sV\u5ac9
p1450
I491
sV\u87cb
p1451
I18
sV\u654c
p1452
I12612
sV\u4ed1
p1453
I986
sV\u8bd3
p1454
I12
sV\u6954
p1455
I95
sV\u72d9
p1456
I592
sV\u505a
p1457
I88946
sV\u8760
p1458
I136
sV\u4e66
p1459
I51727
sV\u94ed
p1460
I1727
sV\u51ef
p1461
I10138
sV\u726e
p1462
I1
sV\u6676
p1463
I4811
sV\u82f9
p1464
I2559
sV\u607a
p1465
I380
sV\u8cfd
p1466
I1
sV\u7303
p1467
I3
sV\u5b88
p1468
I13636
sV\u670b
p1469
I13195
sV\u988a
p1470
I322
sV\u610f
p1471
I125122
sV\u828e
p1472
I34
sV\u8c92
p1473
I12
sV\u9517
p1474
I136
sV\u5219
p1475
I56213
sV\u7398
p1476
I307
sV\u5c1d
p1477
I4794
sV\u991f
p1478
I2
sV\u8d27
p1479
I17194
sV\u7835
p1480
I1
sV\u6239
p1481
I1
sV\u6c3d
p1482
I18
sV\u5343
p1483
I24890
sV\u5d47
p1484
I59
sV\u7ec6
p1485
I27784
sV\u78ca
p1486
I957
sV\u844d
p1487
I1
sV\u62ce
p1488
I286
sV\u8e51
p1489
I44
sV\u96d6
p1490
I2
sV\u53d8
p1491
I69906
sV\u795f
p1492
I151
sV\u6363
p1493
I449
sV\u916f
p1494
I413
sV\u7ff0
p1495
I2297
sV\u5875
p1496
I1
sV\u63f8
p1497
I5
sV\u8f7b
p1498
I29783
sV\u6dfc
p1499
I139
sV\u897f
p1500
I81332
sV\u7981
p1501
I11767
sV\u7f85
p1502
I10
sV\u5106
p1503
I39
sV\u6b8d
p1504
I13
sV\u6191
p1505
I2
sV\u8010
p1506
I4394
sV\u6795
p1507
I1142
sV\u509b
p1508
I2
sV\u7f1a
p1509
I601
sV\u6b22
p1510
I21689
sV\u6126
p1511
I3
sV\u672a
p1512
I49330
sV\u7eaf
p1513
I9240
sV\u5634
p1514
I3968
sV\u8936
p1515
I125
sV\u60bb
p1516
I120
sV\u59c1
p1517
I21
sV\u7840
p1518
I20210
sV\u9cc3
p1519
I43
sV\u5fc5
p1520
I49776
sV\u7e44
p1521
I1
sV\u55c9
p1522
I1
sV\u6050
p1523
I10490
sV\u84d3
p1524
I67
sV\u6654
p1525
I123
sV\u5956
p1526
I20130
sV\u73dd
p1527
I1
sV\u65e9
p1528
I30302
sV\u58eb
p1529
I55410
sV\u7d6e
p1530
I382
sV\u7372
p1531
I2
sV\u97f5
p1532
I1025
sV\u8df9
p1533
I15
sV\u6f7a
p1534
I131
sV\u83fd
p1535
I19
sV\u5880
p1536
I14
sV\u7c03
p1537
I1
sV\u5e84
p1538
I5764
sV\u5488
p1539
I1
sV\u680b
p1540
I1203
sV\u6413
p1541
I400
sV\u8392
p1542
I73
sV\u5d19
p1543
I1
sV\u7c98
p1544
I1433
sV\u901b
p1545
I1379
sV\u531d
p1546
I99
sV\u729c
p1547
I1
sV\u961f
p1548
I126366
sV\u8c23
p1549
I684
sV\u4f25
p1550
I17
sV\u7131
p1551
I234
sV\u90b0
p1552
I97
sV\u7735
p1553
I2
sV\u6d39
p1554
I15
sV\u8cb8
p1555
I2
sV\u633d
p1556
I1442
sV\u5247
p1557
I1
sV\u9549
p1558
I92
sV\u4e4f
p1559
I9433
sV\u8151
p1560
I235
sV\u63d2
p1561
I3125
sV\u8755
p1562
I4
sV\u7a57
p1563
I616
sV\u8be2
p1564
I15681
sV\u4ee4
p1565
I27214
sV\u6267
p1566
I21528
sV\u87ea
p1567
I3
sV\u9e6f
p1568
I1
sV\u5171
p1569
I56612
sV\u5775
p1570
I2
sV\u76f4
p1571
I75352
sV\u6cf8
p1572
I212
sV\u62fc
p1573
I4782
sV\u867f
p1574
I4
sV\u7881
p1575
I201
sV\u9f04
p1576
I2
sV\u5006
p1577
I3
sV\u9508
p1578
I519
sV\u8110
p1579
I262
sV\u6695
p1580
I3
sV\u5b97
p1581
I8702
sV\u7816
p1582
I1564
sV\u519b
p1583
I167867
sV\u6026
p1584
I107
sV\u662a
p1585
I6
sV\u7faf
p1586
I140
sV\u75b3
p1587
I29
sV\u5734
p1588
I1
sV\u6bb7
p1589
I1098
sV\u8836
p1590
I6
sV\u58c1
p1591
I3889
sV\u7940
p1592
I866
sV\u9dc3
p1593
I1
sV\u7f44
p1594
I97
sV\u54c9
p1595
I398
sV\u7548
p1596
I13
sV\u89cb
p1597
I2
sV\u6b4c
p1598
I10757
sV\u85d3
p1599
I45
sV\u6754
p1600
I1
sV\u7cd9
p1601
I500
sV\u6ee5
p1602
I1823
sV\u8568
p1603
I49
sV\u9aed
p1604
I9
sV\u55f3
p1605
I42
sV\u7272
p1606
I2388
sV\u6876
p1607
I1755
sV\u9a82
p1608
I2638
sV\u5f84
p1609
I7417
sV\u5588
p1610
I3
sV\u690b
p1611
I6
sV\u6f0f
p1612
I4503
sV\u8292
p1613
I1018
sV\u5c19
p1614
I3
sV\u521d
p1615
I31131
sV\u8d23
p1616
I44942
sV\u4e25
p1617
I29928
sV\u8327
p1618
I136
sV\u52b2
p1619
I5727
sV\u6c39
p1620
I3
sV\u8db8
p1621
I81
sV\u4eba
p1622
I643935
sV\u83bc
p1623
I15
sV\u9e45
p1624
I1084
sV\u5347
p1625
I44979
sV\u76ca
p1626
I35931
sV\u4f4f
p1627
I31070
sV\u62d2
p1628
I6236
sV\u8655
p1629
I1
sV\u6d63
p1630
I32
sV\u4fe4
p1631
I4
sV\u6367
p1632
I2223
sV\u996b
p1633
I2
sV\u7bec
p1634
I1
sV\u9573
p1635
I78
sV\u8b77
p1636
I3
sV\u6df8
p1637
I1
sV\u817b
p1638
I1257
sV\u5902
p1639
I1
sV\u5306
p1640
I1700
sV\u9608
p1641
I79
sV\u698d
p1642
I5
sV\u4f0e
p1643
I400
sV\u8210
p1644
I20
sV\u5897
p1645
I4
sV\u9f99
p1646
I21963
sV\u529b
p1647
I204160
sV\u7d1a
p1648
I1
sV\u771e
p1649
I1
sV\u8ba1
p1650
I122513
sV\u5230
p1651
I347689
sV\u5434
p1652
I8935
sV\u4e38
p1653
I1621
sV\u62bb
p1654
I16
sV\u8d3a
p1655
I2525
sV\u7a40
p1656
I2
sV\u9ec3
p1657
I11
sV\u5dc5
p1658
I562
sV\u8acb
p1659
I2
sV\u684c
p1660
I3924
sV\u6454
p1661
I1134
sV\u5b56
p1662
I3
sV\u7fd9
p1663
I1
sV\u9e58
p1664
I14
sV\u575e
p1665
I1000
sV\u6be1
p1666
I150
sV\u67e9
p1667
I93
sV\u5aeb
p1668
I6
sV\u5cef
p1669
I10
sV\u7f6e
p1670
I36021
sV\u7172
p1671
I194
sV\u95f5
p1672
I623
sV\u8ff9
p1673
I7417
sV\u677e
p1674
I14735
sV\u6c0f
p1675
I6542
sV\u8f8e
p1676
I64
sV\u6613
p1677
I48896
sV\u709c
p1678
I503
sV\u8e23
p1679
I3
sV\u6ca4
p1680
I7
sV\u8027
p1681
I4
sV\u66a8
p1682
I1711
sV\u5fae
p1683
I21200
sV\u7331
p1684
I3
sV\u51b2
p1685
I18163
sV\u7535
p1686
I115376
sV\u94b4
p1687
I33
sV\u80bc
p1688
I40
sV\u9b41
p1689
I617
sV\u5047
p1690
I24450
sV\u75ca
p1691
I261
sV\u8351
p1692
I16
sV\u61d2
p1693
I1350
sV\u7857
p1694
I4
sV\u725b
p1695
I11587
sV\u50dc
p1696
I2
sV\u745f
p1697
I1076
sV\u6067
p1698
I1
sV\u596d
p1699
I21
sV\u78ec
p1700
I12
sV\u5371
p1701
I13856
sV\u72f0
p1702
I62
sV\u5575
p1703
I22
sV\u74f4
p1704
I27
sV\u8877
p1705
I2362
sV\u7a81
p1706
I30124
sV\u5802
p1707
I10734
sV\u5206
p1708
I253567
sV\u9708
p1709
I7
sV\u540a
p1710
I2093
sV\u4e0e
p1711
I178382
sV\u6291
p1712
I4735
sV\u6495
p1713
I704
sV\u5997
p1714
I8
sV\u909d
p1715
I33
sV\u559f
p1716
I39
sV\u4fa3
p1717
I1559
sV\u6822
p1718
I3
sV\u86a9
p1719
I29
sV\u7bab
p1720
I74
sV\u642a
p1721
I105
sV\u592c
p1722
I1
sV\u77b3
p1723
I187
sV\u9032
p1724
I6
sV\u69b7
p1725
I173
sV\u4f38
p1726
I5939
sV\u65bf
p1727
I1
sV\u5ac1
p1728
I2420
sV\u7d44
p1729
I2
sV\u91c7
p1730
I44305
sV\u8bcb
p1731
I107
sV\u6350
p1732
I3084
sV\u7ed9
p1733
I72935
sV\u70dd
p1734
I3
sV\u6ce5
p1735
I3293
sV\u8d64
p1736
I2438
sV\u66e9
p1737
I8
sV\u5beb
p1738
I2
sV\u5def
p1739
I11
sV\u94f5
p1740
I74
sV\u6c7a
p1741
I4
sV\u80fd
p1742
I303797
sV\u667e
p1743
I167
sV\u5b80
p1744
I1
sV\u7f03
p1745
I3
sV\u9882
p1746
I720
sV\u5d84
p1747
I2
sV\u948a
p1748
I513
sV\u9917
p1749
I9
sV\u5e19
p1750
I10
sV\u719c
p1751
I13
sV\u951f
p1752
I10
sV\u6da4
p1753
I558
sV\u67a8
p1754
I6
sV\u782d
p1755
I47
sV\u99ac
p1756
I16
sV\u7231
p1757
I38863
sV\u50b2
p1758
I1987
sV\u7435
p1759
I206
sV\u9649
p1760
I32
sV\u884d
p1761
I1297
sV\u7957
p1762
I65
sV\u5fd8
p1763
I6591
sV\u51dc
p1764
I2
sV\u88e2
p1765
I6
sV\u6167
p1766
I3876
sV\u82e6
p1767
I14158
sV\u73f0
p1768
I4
sV\u9773
p1769
I237
sV\u5475
p1770
I1640
sV\u75f4
p1771
I802
sV\u837b
p1772
I289
sV\u61fc
p1773
I1
sV\u5f02
p1774
I17723
sV\u7b85
p1775
I5
sV\u9a04
p1776
I3
sV\u5506
p1777
I141
sV\u6f8d
p1778
I74
sV\u8e0c
p1779
I173
sV\u6591
p1780
I2308
sV\u8214
p1781
I122
sV\u5e97
p1782
I25183
sV\u9999
p1783
I21872
sV\u549b
p1784
I51
sV\u529f
p1785
I47200
sV\u6f22
p1786
I3
sV\u8ba5
p1787
I214
sV\u6526
p1788
I1
sV\u632a
p1789
I1175
sV\u992e
p1790
I47
sV\u5430
p1791
I2
sV\u70b3
p1792
I447
sV\u9732
p1793
I22793
sV\u6eb7
p1794
I2
sV\u8d36
p1795
I2
sV\u62bf
p1796
I57
sV\u813e
p1797
I1384
sV\u5bc5
p1798
I458
sV\u96c7
p1799
I3204
sV\u51c9
p1800
I2651
sV\u4fcd
p1801
I5
sV\u6450
p1802
I1
sV\u6254
p1803
I1272
sV\u5d56
p1804
I6
sV\u5b5a
p1805
I1171
sV\u77dd
p1806
I1
sV\u965c
p1807
I3
sV\u6de1
p1808
I5546
sV\u95f1
p1809
I42
sV\u50f3
p1810
I91
sV\u4ef7
p1811
I121551
sV\u617e
p1812
I2
sV\u5088
p1813
I94
sV\u4e8c
p1814
I90220
sV\u5919
p1815
I111
sV\u7898
p1816
I654
sV\u8627
p1817
I3
sV\u60a8
p1818
I12012
sV\u7f2d
p1819
I389
sV\u59ae
p1820
I907
sV\u7531
p1821
I101249
sV\u94b0
p1822
I171
sV\u57b2
p1823
I5
sV\u6939
p1824
I23
sV\u673d
p1825
I509
sV\u9b45
p1826
I2401
sV\u9149
p1827
I203
sV\u73ca
p1828
I821
sV\u8f4d
p1829
I1
sV\u69ce
p1830
I3
sV\u67d2
p1831
I7
sV\u745b
p1832
I246
sV\u725f
p1833
I595
sV\u6863
p1834
I12721
sV\u8fe2
p1835
I188
sV\u6667
p1836
I4
sV\u83ea
p1837
I15
sV\u5f6d
p1838
I3280
sV\u9a6f
p1839
I441
sV\u5375
p1840
I2369
sV\u72f4
p1841
I1
sV\u66fc
p1842
I7069
sV\u827f
p1843
I7
sV\u5e02
p1844
I212923
sV\u7a85
p1845
I1
sV\u5406
p1846
I203
sV\u7089
p1847
I2384
sV\u520a
p1848
I7714
sV\u6e8d
p1849
I55
sV\u6491
p1850
I3467
sV\u6295
p1851
I77409
sV\u8314
p1852
I39
sV\u5f97
p1853
I194776
sV\u9899
p1854
I4
sV\u7a1a
p1855
I555
sV\u539f
p1856
I76102
sV\u8ca1
p1857
I1
sV\u6426
p1858
I1
sV\u80a9
p1859
I2802
sV\u622a
p1860
I8936
sV\u5530
p1861
I55
sV\u71b3
p1862
I2
sV\u9632
p1863
I54377
sV\u8c36
p1864
I40
sV\u8a3a
p1865
I1
sV\u5cc1
p1866
I4
sV\u8dcb
p1867
I445
sV\u4ecd
p1868
I24534
sV\u8bcf
p1869
I655
sV\u78d9
p1870
I1
sV\u5a5a
p1871
I14077
sV\u975c
p1872
I2
sV\u6ce1
p1873
I4255
sV\u8d60
p1874
I2715
sV\u60e9
p1875
I1869
sV\u5deb
p1876
I1084
sV\u786e
p1877
I56594
sV\u94f1
p1878
I15
sV\u51f3
p1879
I514
sV\u6c76
p1880
I120
sV\u88f9
p1881
I966
sV\u9e82
p1882
I21
sV\u5b84
p1883
I4
sV\u7707
p1884
I12
sV\u9486
p1885
I2
sV\u5188
p1886
I1583
sV\u6d0b
p1887
I16010
sV\u9f17
p1888
I4
sV\u5819
p1889
I4
sV\u7998
p1890
I1
sV\u6da0
p1891
I27
sV\u61a8
p1892
I394
sV\u7235
p1893
I1192
sV\u6839
p1894
I46614
sV\u7ec2
p1895
I2
sV\u9a45
p1896
I1
sV\u5747
p1897
I31186
sV\u8451
p1898
I3
sV\u7f57
p1899
I37493
sV\u9cd6
p1900
I69
sV\u59d8
p1901
I10
sV\u755b
p1902
I5
sV\u90de
p1903
I10
sV\u6963
p1904
I95
sV\u84e6
p1905
I62
sV\u5471
p1906
I120
sV\u75f0
p1907
I446
sV\u5275
p1908
I3
sV\u857b
p1909
I6
sV\u7f81
p1910
I275
sV\u5d02
p1911
I65
sV\u7985
p1912
I1125
sV\u5706
p1913
I6315
sV\u7389
p1914
I8110
sV\u9208
p1915
I1
sV\u8c0c
p1916
I36
sV\u5c97
p1917
I8968
sV\u7f16
p1918
I22080
sV\u731e
p1919
I3
sV\u6726
p1920
I258
sV\u83a9
p1921
I4
sV\u7eab
p1922
I98
sV\u5c2c
p1923
I1926
sV\u9532
p1924
I70
sV\u9ac3
p1925
I1
sV\u53c9
p1926
I1733
sV\u7248
p1927
I23860
sV\u88cf
p1928
I3
sV\u82d3
p1929
I152
sV\u5f56
p1930
I1
sV\u7bd9
p1931
I17
sV\u595a
p1932
I138
sV\u535e
p1933
I261
sV\u6fe1
p1934
I105
sV\u8e60
p1935
I2
sV\u8864
p1936
I6
sV\u63e9
p1937
I37
sV\u8268
p1938
I10
sV\u58ef
p1939
I1
sV\u7b6e
p1940
I11
sV\u7572
p1941
I43
sV\u8bf9
p1942
I2
sV\u5e80
p1943
I1
sV\u7407
p1944
I5
sV\u5288
p1945
I332
sV\u918a
p1946
I1
sV\u680f
p1947
I2991
sV\u7a98
p1948
I421
sV\u749c
p1949
I41
sV\u901f
p1950
I48410
sV\u8427
p1951
I1630
sV\u62a8
p1952
I274
sV\u5bae
p1953
I1
sV\u96b0
p1954
I7
sV\u90b4
p1955
I18
sV\u4fb6
p1956
I1
sV\u6b39
p1957
I3
sV\u8ab8
p1958
I1
sV\u84bc
p1959
I1
sV\u9f41
p1960
I1
sV\u4e4b
p1961
I185940
sV\u71ca
p1962
I22
sV\u8d4d
p1963
I13
sV\u6bce
p1964
I5
sV\u65d2
p1965
I6
sV\u8155
p1966
I901
sV\u5ad8
p1967
I3
sV\u6467
p1968
I1597
sV\u87e6
p1969
I1
sV\u9e6b
p1970
I134
sV\u81ea
p1971
I247708
sV\u986f
p1972
I2
sV\u5175
p1973
I32164
sV\u867b
p1974
I83
sV\u807f
p1975
I224
sV\u7289
p1976
I4
sV\u6691
p1977
I1286
sV\u8114
p1978
I11
sV\u9a99
p1979
I6
sV\u579b
p1980
I66
sV\u781a
p1981
I107
sV\u949d
p1982
I395
sV\u6c22
p1983
I1167
sV\u82a9
p1984
I29
sV\u602a
p1985
I6524
sV\u5730
p1986
I266101
sV\u73b3
p1987
I40
sV\u8e36
p1988
I1
sV\u823e
p1989
I20
sV\u58c5
p1990
I17
sV\u95c7
p1991
I11
sV\u52c9
p1992
I1034
sV\u8fcb
p1993
I4
sV\u6750
p1994
I19092
sV\u83d3
p1995
I5
sV\u7ad9
p1996
I32668
sV\u585a
p1997
I15
sV\u955c
p1998
I6545
sV\u6ee1
p1999
I36437
sV\u62e9
p2000
I31986
sV\u8368
p2001
I57
sV\u5feb
p2002
I43497
sV\u53f3
p2003
I23445
sV\u90f5
p2004
I2
sV\u627e
p2005
I34042
sV\u5f80
p2006
I44597
sV\u7b03
p2007
I243
sV\u9c82
p2008
I2
sV\u5984
p2009
I912
sV\u9686
p2010
I6109
sV\u541d
p2011
I246
sV\u63a8
p2012
I55035
sV\u54b2
p2013
I6
sV\u91b4
p2014
I29
sV\u4eb6
p2015
I3
sV\u6a39
p2016
I4
sV\u8bb8
p2017
I42038
sV\u643d
p2018
I72
sV\u9e41
p2019
I3
sV\u76c6
p2020
I1745
sV\u70ca
p2021
I31
sV\u8651
p2022
I18938
sV\u64d2
p2023
I406
sV\u775b
p2024
I4349
sV\u98da
p2025
I235
sV\u55dc
p2026
I581
sV\u715f
p2027
I13
sV\u6b63
p2028
I111800
sV\u80ea
p2029
I8
sV\u996f
p2030
I49
sV\u5671
p2031
I158
sV\u8d77
p2032
I111050
sV\u65fc
p2033
I5
sV\u817f
p2034
I3933
sV\u6302
p2035
I7817
sV\u908b
p2036
I61
sV\u538d
p2037
I11
sV\u968f
p2038
I37867
sV\u5f95
p2039
I119
sV\u6297
p2040
I18529
sV\u8418
p2041
I22
sV\u6e9f
p2042
I119
sV\u9020
p2043
I62776
sV\u622c
p2044
I16
sV\u6e34
p2045
I2458
sV\u7a3c
p2046
I207
sV\u8342
p2047
I1
sV\u73cd
p2048
I5190
sV\u524c
p2049
I128
sV\u954e
p2050
I2
sV\u79d1
p2051
I93713
sV\u7fd5
p2052
I39
sV\u5e54
p2053
I54
sV\u82d7
p2054
I2865
sV\u6d5e
p2055
I9
sV\u51e1
p2056
I6036
sV\u94e3
p2057
I68
sV\u5de9
p2058
I1800
sV\u60eb
p2059
I735
sV\u7f6a
p2060
I10158
sV\u8870
p2061
I3045
sV\u6cf3
p2062
I1660
sV\u8e74
p2063
I169
sV\u72f7
p2064
I12
sV\u5176
p2065
I185498
sV\u78fb
p2066
I2
sV\u9a7c
p2067
I512
sV\u7eff
p2068
I7684
sV\u6684
p2069
I116
sV\u6c88
p2070
I6040
sV\u500b
p2071
I22
sV\u728c
p2072
I1
sV\u5c13
p2073
I7
sV\u7e94
p2074
I8
sV\u7121
p2075
I15
sV\u8c33
p2076
I1
sV\u983b
p2077
I2
sV\u9e3f
p2078
I1939
sV\u80c0
p2079
I2250
sV\u86c4
p2080
I11
sV\u6a47
p2081
I101
sV\u8cc8
p2082
I2
sV\u4fca
p2083
I3129
sV\u7c53
p2084
I7
sV\u5bd2
p2085
I4332
sV\u9ed4
p2086
I395
sV\u8559
p2087
I66
sV\u64d8
p2088
I41
sV\u4e5f
p2089
I245349
sV\u9161
p2090
I5
sV\u9765
p2091
I20
sV\u5a67
p2092
I192
sV\u7ce8
p2093
I18
sV\u636d
p2094
I58
sV\u8bf2
p2095
I133
sV\u7579
p2096
I24
sV\u918b
p2097
I794
sV\u6e0a
p2098
I1544
sV\u740e
p2099
I12
sV\u5e95
p2100
I30437
sV\u8518
p2101
I2
sV\u699b
p2102
I46
sV\u9120
p2103
I8
sV\u75a3
p2104
I117
sV\u7ba7
p2105
I7
sV\u82ad
p2106
I366
sV\u88b1
p2107
I426
sV\u6930
p2108
I449
sV\u94b9
p2109
I7
sV\u7538
p2110
I1220
sV\u59bb
p2111
I7335
sV\u7b3c
p2112
I1536
sV\u8846
p2113
I3
sV\u6cc9
p2114
I8215
sV\u8e4a
p2115
I205
sV\u72cd
p2116
I11
sV\u7ed5
p2117
I4345
sV\u665a
p2118
I19379
sV\u8fdf
p2119
I5470
sV\u6c5e
p2120
I284
sV\u7262
p2121
I3133
sV\u7e6a
p2122
I1
sV\u67ef
p2123
I3812
sV\u6df3
p2124
I447
sV\u8f74
p2125
I2516
sV\u5076
p2126
I4809
sV\u79fb
p2127
I21114
sV\u5c7e
p2128
I11
sV\u8001
p2129
I72610
sV\u8605
p2130
I6
sV\u6784
p2131
I48271
sV\u6d88
p2132
I71574
sV\u510b
p2133
I14
sV\u7f94
p2134
I92
sV\u8096
p2135
I2015
sV\u51a0
p2136
I15417
sV\u98a6
p2137
I68
sV\u812b
p2138
I1
sV\u64ae
p2139
I170
sV\u5439
p2140
I3102
sV\u7cbe
p2141
I44626
sV\u81c0
p2142
I554
sV\u6b47
p2143
I1133
sV\u4eca
p2144
I76833
sV\u54ce
p2145
I329
sV\u99d0
p2146
I1
sV\u5ad2
p2147
I4
sV\u8a5d
p2148
I44
sV\u4f5f
p2149
I205
sV\u71e0
p2150
I12
sV\u7de8
p2151
I1
sV\u626d
p2152
I3943
sV\u6e75
p2153
I4
sV\u5bfc
p2154
I86172
sV\u4f89
p2155
I7
sV\u6d0a
p2156
I2
sV\u518d
p2157
I60414
sV\u948f
p2158
I30
sV\u9e93
p2159
I305
sV\u6c9f
p2160
I8358
sV\u4f1e
p2161
I1792
sV\u78a7
p2162
I1279
sV\u9e28
p2163
I25
sV\u4eb3
p2164
I75
sV\u8db5
p2165
I36
sV\u6c34
p2166
I80150
sV\u50b7
p2167
I2
sV\u7638
p2168
I107
sV\u783c
p2169
I1
sV\u5cbf
p2170
I60
sV\u65c5
p2171
I72327
sV\u6fc9
p2172
I8
sV\u4e48
p2173
I105152
sV\u8d4a
p2174
I64
sV\u504c
p2175
I132
sV\u7bd1
p2176
I55
sV\u80d7
p2177
I8
sV\u6f5e
p2178
I51
sV\u53e1
p2179
I26
sV\u96e3
p2180
I2
sV\u55e5
p2181
I4
sV\u98e7
p2182
I7
sV\u70f7
p2183
I152
sV\u9678
p2184
I1
sV\u987c
p2185
I26
sV\u8301
p2186
I79
sV\u6280
p2187
I86120
sV\u6484
p2188
I3
sV\u8f09
p2189
I3
sV\u520b
p2190
I2
sV\u540f
p2191
I712
sV\u8f9e
p2192
I5111
sV\u7321
p2193
I5
sV\u52a0
p2194
I147610
sV\u91a2
p2195
I6
sV\u7525
p2196
I126
sV\u54a4
p2197
I94
sV\u7f29
p2198
I8491
sV\u822b
p2199
I46
sV\u5739
p2200
I13
sV\u6643
p2201
I1144
sV\u84c4
p2202
I2293
sV\u724b
p2203
I1
sV\u57ce
p2204
I55185
sV\u59d2
p2205
I54
sV\u9cd4
p2206
I1
sV\u8759
p2207
I103
sV\u72e0
p2208
I1797
sV\u9565
p2209
I1
sV\u74e4
p2210
I31
sV\u7ee8
p2211
I4
sV\u87ee
p2212
I10
sV\u7779
p2213
I1177
sV\u95fa
p2214
I297
sV\u8783
p2215
I237
sV\u6002
p2216
I126
sV\u4e89
p2217
I56368
sV\u508d
p2218
I697
sV\u7812
p2219
I51
sV\u5c95
p2220
I1
sV\u8718
p2221
I266
sV\u6b9b
p2222
I10
sV\u6d9f
p2223
I129
sV\u4e1e
p2224
I275
sV\u9524
p2225
I732
sV\u79a7
p2226
I818
sV\u80ad
p2227
I6
sV\u612c
p2228
I4
sV\u51b7
p2229
I11705
sV\u96b9
p2230
I5
sV\u7738
p2231
I150
sV\u793c
p2232
I10452
sV\u8042
p2233
I868
sV\u64c5
p2234
I1742
sV\u4f48
p2235
I1
sV\u514c
p2236
I2
sV\u7ad1
p2237
I4
sV\u5b50
p2238
I152046
sV\u9852
p2239
I13
sV\u7cd5
p2240
I2007
sV\u8bdb
p2241
I318
sV\u8ddf
p2242
I20534
sV\u54e5
p2243
I7823
sV\u65ef
p2244
I11
sV\u8b70
p2245
I7
sV\u8d74
p2246
I4789
sV\u9778
p2247
I1
sV\u997c
p2248
I1426
sV\u5e7e
p2249
I3
sV\u6380
p2250
I1633
sV\u8e09
p2251
I46
sV\u6f88
p2252
I290
sV\u900d
p2253
I236
sV\u550f
p2254
I134
sV\u7b90
p2255
I13
sV\u5f13
p2256
I1032
sV\u6619
p2257
I118
sV\u681d
p2258
I2
sV\u8e9e
p2259
I2
sV\u53a0
p2260
I1
sV\u90a2
p2261
I358
sV\u7425
p2262
I151
sV\u5fa8
p2263
I133
sV\u832b
p2264
I1539
sV\u66ae
p2265
I321
sV\u72b6
p2266
I30802
sV\u5639
p2267
I43
sV\u9b3b
p2268
I23
sV\u74ba
p2269
I2
sV\u583d
p2270
I1
sV\u7ebe
p2271
I63
sV\u83c0
p2272
I20
sV\u6743
p2273
I76424
sV\u8fc8
p2274
I3707
sV\u91cc
p2275
I121315
sV\u754f
p2276
I1305
sV\u67d8
p2277
I64
sV\u73e0
p2278
I5843
sV\u75e4
p2279
I158
sV\u5967
p2280
I3
sV\u9e69
p2281
I1
sV\u606d
p2282
I1262
sV\u86ee
p2283
I1207
sV\u6a71
p2284
I298
sV\u88f2
p2285
I1
sV\u57f8
p2286
I6
sV\u94fa
p2287
I3871
sV\u9efe
p2288
I1
sV\u8083
p2289
I3404
sV\u8e87
p2290
I172
sV\u948b
p2291
I1
sV\u6b0a
p2292
I2
sV\u9893
p2293
I380
sV\u7f12
p2294
I6
sV\u5b95
p2295
I144
sV\u6697
p2296
I6482
sV\u8018
p2297
I191
sV\u6c9b
p2298
I902
sV\u5722
p2299
I1
sV\u7ea7
p2300
I72219
sV\u5d26
p2301
I3
sV\u87ad
p2302
I22
sV\u6c30
p2303
I66
sV\u8bb5
p2304
I8
sV\u56b7
p2305
I432
sV\u5abf
p2306
I1
sV\u65c1
p2307
I4855
sV\u77cd
p2308
I22
sV\u564c
p2309
I36
sV\u914e
p2310
I4
sV\u5c50
p2311
I23
sV\u6556
p2312
I527
sV\u4fdd
p2313
I118346
sV\u695e
p2314
I136
sV\u55e1
p2315
I123
sV\u7762
p2316
I29
sV\u53e5
p2317
I15482
sV\u9ee7
p2318
I7
sV\u7d66
p2319
I6
sV\u866c
p2320
I24
sV\u62ef
p2321
I713
sV\u5576
p2322
I78
sV\u9078
p2323
I8
sV\u7cfb
p2324
I113622
sV\u537a
p2325
I6
sV\u7aff
p2326
I382
sV\u8305
p2327
I1522
sV\u6284
p2328
I1451
sV\u4e07
p2329
I101110
sV\u6888
p2330
I1
sV\u540b
p2331
I22
sV\u970d
p2332
I3211
sV\u4e9c
p2333
I1
sV\u7325
p2334
I112
sV\u58a8
p2335
I3066
sV\u822f
p2336
I3
sV\u73ba
p2337
I184
sV\u79be
p2338
I286
sV\u6043
p2339
I240
sV\u82c4
p2340
I31
sV\u96cc
p2341
I1127
sV\u5fd2
p2342
I65
sV\u9ad4
p2343
I4
sV\u60d8
p2344
I113
sV\u74e0
p2345
I22
sV\u9969
p2346
I1
sV\u78e8
p2347
I4452
sV\u676d
p2348
I3728
sV\u95f6
p2349
I4
sV\u7f7d
p2350
I2
sV\u6602
p2351
I3340
sV\u8f87
p2352
I34
sV\u6c06
p2353
I42
sV\u958b
p2354
I19
sV\u6a0a
p2355
I473
sV\u938f
p2356
I27
sV\u5c91
p2357
I202
sV\u9993
p2358
I23
sV\u6797
p2359
I32289
sV\u8118
p2360
I43
sV\u6d9b
p2361
I3796
sV\u5622
p2362
I14
sV\u9324
p2363
I2
sV\u7fa7
p2364
I14
sV\u9928
p2365
I2
sV\u672c
p2366
I242528
sV\u90b9
p2367
I987
sV\u9ebd
p2368
I194
sV\u5bbf
p2369
I5174
sV\u62c5
p2370
I29844
sV\u8c46
p2371
I3908
sV\u68c9
p2372
I1505
sV\u76cd
p2373
I7
sV\u904e
p2374
I12
sV\u5b54
p2375
I4763
sV\u8ddb
p2376
I51
sV\u4edd
p2377
I15
sV\u8bdf
p2378
I203
sV\u54e1
p2379
I4
sV\u8d70
p2380
I41659
sV\u5476
p2381
I23
sV\u9178
p2382
I7472
sV\u587e
p2383
I139
sV\u8401
p2384
I7
sV\u8205
p2385
I592
sV\u6988
p2386
I259
sV\u960d
p2387
I5
sV\u778c
p2388
I150
sV\u530f
p2389
I46
sV\u7b94
p2390
I86
sV\u6019
p2391
I9
sV\u6e1d
p2392
I709
sV\u9ca6
p2393
I1
sV\u7829
p2394
I3
sV\u59a8
p2395
I2448
sV\u852b
p2396
I44
sV\u832f
p2397
I51
sV\u6eb2
p2398
I7
sV\u5e3d
p2399
I2240
sV\u78be
p2400
I179
sV\u6f47
p2401
I562
sV\u89c8
p2402
I6135
sV\u754b
p2403
I10
sV\u7953
p2404
I9
sV\u8e5d
p2405
I2
sV\u5f67
p2406
I19
sV\u94f6
p2407
I25044
sV\u51f8
p2408
I1560
sV\u8283
p2409
I5
sV\u6f06
p2410
I1206
sV\u968b
p2411
I835
sV\u730e
p2412
I3680
sV\u9a93
p2413
I9
sV\u8218
p2414
I2
sV\u8c1c
p2415
I1339
sV\u5522
p2416
I27
sV\u5f26
p2417
I835
sV\u592a
p2418
I50135
sV\u642c
p2419
I2328
sV\u8fb1
p2420
I2108
sV\u6834
p2421
I1
sV\u54b7
p2422
I1
sV\u7238
p2423
I4109
sV\u67c1
p2424
I3
sV\u75cd
p2425
I35
sV\u79d5
p2426
I3
sV\u5854
p2427
I10424
sV\u6756
p2428
I363
sV\u88df
p2429
I52
sV\u846c
p2430
I2348
sV\u60ef
p2431
I9422
sV\u8e70
p2432
I4
sV\u74f7
p2433
I1001
sV\u5776
p2434
I1
sV\u7efb
p2435
I23
sV\u9c7c
p2436
I10212
sV\u6084
p2437
I2857
sV\u500f
p2438
I40
sV\u5a13
p2439
I133
sV\u95a2
p2440
I2
sV\u63ae
p2441
I19
sV\u6db2
p2442
I12068
sV\u5339
p2443
I3212
sV\u5d3d
p2444
I105
sV\u86c0
p2445
I106
sV\u6243
p2446
I8
sV\u80c4
p2447
I109
sV\u6c47
p2448
I12795
sV\u94cc
p2449
I5
sV\u704f
p2450
I33
sV\u62d8
p2451
I1306
sV\u8d5d
p2452
I63
sV\u9761
p2453
I686
sV\u9165
p2454
I419
sV\u70e4
p2455
I1697
sV\u4ef0
p2456
I2532
sV\u6975
p2457
I2
sV\u97f6
p2458
I485
sV\u6402
p2459
I266
sV\u978b
p2460
I3366
sV\u5e91
p2461
I33
sV\u6597
p2462
I21372
sV\u8318
p2463
I1
sV\u5e26
p2464
I49880
sV\u582a
p2465
I3174
sV\u652c
p2466
I1
sV\u6934
p2467
I12
sV\u55b7
p2468
I3374
sV\u7338
p2469
I1
sV\u9cbd
p2470
I4
sV\u66c1
p2471
I3
sV\u60c5
p2472
I133154
sV\u884a
p2473
I1
sV\u7ed1
p2474
I1305
sV\u78d5
p2475
I363
sV\u5954
p2476
I6089
sV\u6656
p2477
I863
sV\u8fdb
p2478
I204419
sV\u605a
p2479
I17
sV\u56e1
p2480
I16
sV\u7462
p2481
I1
sV\u5ae9
p2482
I1046
sV\u786a
p2483
I1
sV\u8f70
p2484
I4777
sV\u6bf3
p2485
I2
sV\u8974
p2486
I2
sV\u5676
p2487
I122
sV\u7ffb
p2488
I9006
sV\u8005
p2489
I206216
sV\u570b
p2490
I18
sV\u940d
p2491
I3
sV\u9e11
p2492
I1
sV\u7994
p2493
I14
sV\u809a
p2494
I1901
sV\u8a9e
p2495
I2
sV\u57a0
p2496
I257
sV\u94a2
p2497
I7899
sV\u51a4
p2498
I1104
sV\u9ea6
p2499
I6333
sV\u812f
p2500
I180
sV\u6cb2
p2501
I1
sV\u9537
p2502
I48
sV\u5239
p2503
I1932
sV\u9f3b
p2504
I3723
sV\u70ba
p2505
I32
sV\u5c3d
p2506
I30263
sV\u87c0
p2507
I18
sV\u6d47
p2508
I460
sV\u4ec6
p2509
I591
sV\u8bc8
p2510
I1511
sV\u5cd2
p2511
I36
sV\u4f5b
p2512
I8901
sV\u9661
p2513
I468
sV\u5363
p2514
I9
sV\u9065
p2515
I3328
sV\u646d
p2516
I3
sV\u96f6
p2517
I13145
sV\u7279
p2518
I108241
sV\u53f8
p2519
I212514
sV\u7c7d
p2520
I225
sV\u9afe
p2521
I1
sV\u6b02
p2522
I2
sV\u6106
p2523
I12
sV\u988b
p2524
I2
sV\u670a
p2525
I10
sV\u5191
p2526
I3
sV\u9493
p2527
I1399
sV\u5795
p2528
I3
sV\u6a97
p2529
I8
sV\u8c18
p2530
I20
sV\u609b
p2531
I3
sV\u4f1a
p2532
I350209
sV\u821c
p2533
I833
sV\u572a
p2534
I4
sV\u8bad
p2535
I34643
sV\u6634
p2536
I10
sV\u7c38
p2537
I289
sV\u50bb
p2538
I1262
sV\u69c1
p2539
I19
sV\u8146
p2540
I121
sV\u65c9
p2541
I2
sV\u5654
p2542
I46
sV\u80db
p2543
I28
sV\u86df
p2544
I90
sV\u655e
p2545
I1469
sV\u7166
p2546
I154
sV\u776a
p2547
I13
sV\u5976
p2548
I5846
sV\u557e
p2549
I9
sV\u8509
p2550
I2
sV\u580b
p2551
I9
sV\u7a8c
p2552
I2
sV\u5e0f
p2553
I16
sV\u5413
p2554
I1849
sV\u8996
p2555
I1
sV\u6d19
p2556
I43
sV\u631d
p2557
I76
sV\u7921
p2558
I1
sV\u58a0
p2559
I5
sV\u7f25
p2560
I79
sV\u7529
p2561
I899
sV\u54a8
p2562
I10254
sV\u8e2f
p2563
I24
sV\u6dae
p2564
I185
sV\u8433
p2565
I2
sV\u903b
p2566
I3484
sV\u963f
p2567
I22449
sV\u75be
p2568
I10693
sV\u6247
p2569
I1046
sV\u9acc
p2570
I10
sV\u90d0
p2571
I2
sV\u62dc
p2572
I5402
sV\u5c63
p2573
I8
sV\u5267
p2574
I11275
sV\u83f2
p2575
I6825
sV\u6775
p2576
I53
sV\u95fe
p2577
I64
sV\u6a02
p2578
I7
sV\u6006
p2579
I64
sV\u998b
p2580
I108
sV\u660a
p2581
I689
sV\u9f8f
p2582
I1
sV\u5091
p2583
I1
sV\u9593
p2584
I14
sV\u4e1a
p2585
I348206
sV\u831c
p2586
I326
sV\u5026
p2587
I1222
sV\u9528
p2588
I24
sV\u4faf
p2589
I2516
sV\u80b1
p2590
I32
sV\u86b5
p2591
I1
sV\u6734
p2592
I2388
sV\u51bb
p2593
I2251
sV\u733c
p2594
I1
sV\u57bf
p2595
I1
sV\u68c1
p2596
I1
sV\u8046
p2597
I303
sV\u8bd7
p2598
I6763
sV\u645e
p2599
I121
sV\u54e9
p2600
I301
sV\u8b6c
p2601
I617
sV\u6fef
p2602
I27
sV\u8170
p2603
I3876
sV\u8774
p2604
I354
sV\u7bf7
p2605
I1004
sV\u71fb
p2606
I2
sV\u5e7a
p2607
I80
sV\u77ff
p2608
I5832
sV\u547e
p2609
I1
sV\u8e05
p2610
I4
sV\u6f84
p2611
I837
sV\u5f0f
p2612
I88279
sV\u9011
p2613
I18
sV\u9615
p2614
I22
sV\u8896
p2615
I2081
sV\u6c19
p2616
I218
sV\u849e
p2617
I3
sV\u9aa2
p2618
I7
sV\u90a6
p2619
I4780
sV\u55a8
p2620
I2
sV\u892b
p2621
I11
sV\u6cae
p2622
I567
sV\u78b6
p2623
I1
sV\u5c39
p2624
I1315
sV\u7eba
p2625
I1877
sV\u523d
p2626
I98
sV\u89c0
p2627
I12
sV\u6d43
p2628
I38
sV\u8fc4
p2629
I1133
sV\u794b
p2630
I1
sV\u91d0
p2631
I12
sV\u52d2
p2632
I8281
sV\u6dd8
p2633
I3640
sV\u63dc
p2634
I1
sV\u5367
p2635
I2420
sV\u75e8
p2636
I16
sV\u53fc
p2637
I63
sV\u94fe
p2638
I6128
sV\u8087
p2639
I1205
sV\u9a8b
p2640
I663
sV\u598d
p2641
I111
sV\u7f0e
p2642
I153
sV\u6897
p2643
I561
sV\u629b
p2644
I2843
sV\u801c
p2645
I2
sV\u7ea3
p2646
I144
sV\u5922
p2647
I1
sV\u5326
p2648
I6
sV\u83b1
p2649
I8091
sV\u6230
p2650
I3
sV\u6434
p2651
I2
sV\u52bb
p2652
I4
sV\u54bf
p2653
I39
sV\u6bc1
p2654
I5164
sV\u6dc5
p2655
I42
sV\u8346
p2656
I663
sV\u854a
p2657
I415
sV\u79cd
p2658
I141390
sV\u584c
p2659
I1154
sV\u73d1
p2660
I195
sV\u5250
p2661
I117
sV\u9152
p2662
I20533
sV\u75d5
p2663
I1931
sV\u5454
p2664
I9
sV\u82db
p2665
I727
sV\u6d5a
p2666
I207
sV\u84df
p2667
I146
sV\u675e
p2668
I589
sV\u5be1
p2669
I1012
sV\u7962
p2670
I7
sV\u5de5
p2671
I204454
sV\u90e7
p2672
I45
sV\u756a
p2673
I4554
sV\u886c
p2674
I1066
sV\u6cef
p2675
I104
sV\u8270
p2676
I4226
sV\u66f3
p2677
I252
sV\u78f7
p2678
I652
sV\u72fb
p2679
I5
sV\u74ff
p2680
I4
sV\u6a80
p2681
I194
sV\u4e03
p2682
I16408
sV\u6c84
p2683
I1
sV\u8709
p2684
I9
sV\u990d
p2685
I4
sV\u788c
p2686
I964
sV\u5c0f
p2687
I134399
sV\u7290
p2688
I1
sV\u4e98
p2689
I130
sV\u5aa0
p2690
I1
sV\u7729
p2691
I451
sV\u8a2b
p2692
I4
sV\u8c2f
p2693
I28
sV\u5f39
p2694
I38312
sV\u7dba
p2695
I1
sV\u77be
p2696
I16
sV\u6e43
p2697
I349
sV\u6ed8
p2698
I4
sV\u60dc
p2699
I4121
sV\u7ae0
p2700
I27964
sV\u9769
p2701
I33042
sV\u76e8
p2702
I1
sV\u696d
p2703
I11
sV\u8fee
p2704
I1
sV\u6371
p2705
I47
sV\u7f79
p2706
I218
sV\u5ef8
p2707
I2
sV\u717d
p2708
I442
sV\u8f83
p2709
I61595
sV\u6206
p2710
I5
sV\u9b8b
p2711
I1
sV\u5495
p2712
I381
sV\u659f
p2713
I191
sV\u9728
p2714
I1
sV\u88ad
p2715
I5267
sV\u82b1
p2716
I34911
sV\u7f38
p2717
I1609
sV\u53bb
p2718
I108497
sV\u90bd
p2719
I7
sV\u6cc5
p2720
I20
sV\u9052
p2721
I36
sV\u4ed9
p2722
I2608
sV\u665e
p2723
I26
sV\u5ae1
p2724
I240
sV\u5ce5
p2725
I156
sV\u7266
p2726
I101
sV\u6beb
p2727
I9965
sV\u6def
p2728
I2
sV\u67f3
p2729
I3004
sV\u8574
p2730
I1330
sV\u5a76
p2731
I55
sV\u73fb
p2732
I1
sV\u5c7a
p2733
I1
sV\u75ff
p2734
I240
sV\u8a01
p2735
I5
sV\u8c05
p2736
I1049
sV\u6d84
p2737
I2
sV\u5713
p2738
I2
sV\u7594
p2739
I3
sV\u601d
p2740
I43199
sV\u7a21
p2741
I5
sV\u5ba0
p2742
I2206
sV\u98a2
p2743
I58
sV\u7629
p2744
I209
sV\u94aa
p2745
I2
sV\u8d2f
p2746
I5007
sV\u60b2
p2747
I4314
sV\u8bc0
p2748
I880
sV\u8dc4
p2749
I50
sV\u7b4b
p2750
I1271
sV\u95d4
p2751
I1
sV\u8e59
p2752
I49
sV\u7be0
p2753
I12
sV\u5167
p2754
I63
sV\u9669
p2755
I45036
sV\u5ff8
p2756
I18
sV\u707d
p2757
I1
sV\u51fc
p2758
I10
sV\u96fe
p2759
I2121
sV\u6f02
p2760
I3895
sV\u9c8b
p2761
I5
sV\u9a8f
p2762
I2469
sV\u5591
p2763
I15
sV\u9093
p2764
I3680
sV\u5395
p2765
I1511
sV\u629f
p2766
I10
sV\u78a3
p2767
I57
sV\u5f22
p2768
I22
sV\u532a
p2769
I1056
sV\u6e2c
p2770
I4
sV\u6234
p2771
I6997
sV\u5eb7
p2772
I24174
sV\u7838
p2773
I1043
sV\u54bb
p2774
I30
sV\u763c
p2775
I3
sV\u52bf
p2776
I47382
sV\u6bc5
p2777
I3024
sV\u61c9
p2778
I3
sV\u5e4c
p2779
I273
sV\u5450
p2780
I800
sV\u9752
p2781
I28522
sV\u5254
p2782
I777
sV\u82df
p2783
I468
sV\u5de1
p2784
I6374
sV\u7f62
p2785
I2310
sV\u5be5
p2786
I801
sV\u7566
p2787
I5
sV\u6ceb
p2788
I3
sV\u8e6c
p2789
I225
sV\u60f3
p2790
I92840
sV\u7ef7
p2791
I349
sV\u9878
p2792
I6
sV\u5b7a
p2793
I108
sV\u6a84
p2794
I97
sV\u8109
p2795
I4190
sV\u9f0d
p2796
I7
sV\u7e8c
p2797
I7
sV\u9511
p2798
I36
sV\u7490
p2799
I219
sV\u5013
p2800
I6
sV\u8b9a
p2801
I1
sV\u671d
p2802
I18755
sV\u9fa2
p2803
I22
sV\u7b25
p2804
I7
sV\u50a8
p2805
I6901
sV\u8c2b
p2806
I2
sV\u8033
p2807
I8020
sV\u67b2
p2808
I1
sV\u9e37
p2809
I11
sV\u5939
p2810
I2099
sV\u6843
p2811
I2417
sV\u80c8
p2812
I1
sV\u94d0
p2813
I97
sV\u57d2
p2814
I4
sV\u4e57
p2815
I1
sV\u68d8
p2816
I507
sV\u66dc
p2817
I260
sV\u7ce0
p2818
I53
sV\u7ae4
p2819
I22
sV\u9169
p2820
I22
sV\u70e8
p2821
I167
sV\u6f6d
p2822
I1202
sV\u4eec
p2823
I272334
sV\u7979
p2824
I2
sV\u777d
p2825
I115
sV\u8983
p2826
I147
sV\u6e02
p2827
I1
sV\u6406
p2828
I1
sV\u620a
p2829
I317
sV\u6f97
p2830
I1
sV\u659b
p2831
I38
sV\u871c
p2832
I1801
sV\u5e22
p2833
I1
sV\u77a7
p2834
I662
sV\u5426
p2835
I30354
sV\u5fb7
p2836
I55238
sV\u55bb
p2837
I1586
sV\u96bd
p2838
I108
sV\u773c
p2839
I30556
sV\u53bf
p2840
I15979
sV\u6cc1
p2841
I1
sV\u8e42
p2842
I121
sV\u8446
p2843
I123
sV\u7ecd
p2844
I20668
sV\u5550
p2845
I9
sV\u83df
p2846
I15
sV\u5ce1
p2847
I3668
sV\u97e7
p2848
I698
sV\u6deb
p2849
I1411
sV\u726a
p2850
I2
sV\u8f6c
p2851
I49334
sV\u6bef
p2852
I521
sV\u8374
p2853
I1
sV\u5a7a
p2854
I126
sV\u977c
p2855
I32
sV\u507e
p2856
I3
sV\u8c01
p2857
I13609
sV\u6b84
p2858
I12
sV\u7f8c
p2859
I272
sV\u661d
p2860
I4
sV\u809e
p2861
I11
sV\u5ba4
p2862
I23018
sV\u94a6
p2863
I1023
sV\u8d2b
p2864
I5975
sV\u4e2d
p2865
I614126
sV\u66b2
p2866
I31
sV\u9f37
p2867
I4
sV\u953b
p2868
I2966
sV\u8bc4
p2869
I35018
sV\u7b4f
p2870
I71
sV\u4f57
p2871
I53
sV\u8859
p2872
I278
sV\u67dc
p2873
I1806
sV\u9069
p2874
I8
sV\u4fec
p2875
I3
sV\u86f2
p2876
I14
sV\u767d
p2877
I36625
sV\u57fc
p2878
I7
sV\u90fe
p2879
I28
sV\u9e8b
p2880
I16
sV\u988f
p2881
I19
sV\u5195
p2882
I1226
sV\u8a18
p2883
I4
sV\u841c
p2884
I9
sV\u609f
p2885
I1962
sV\u9e20
p2886
I98
sV\u7aa3
p2887
I4
sV\u9824
p2888
I1
sV\u74a7
p2889
I240
sV\u4eab
p2890
I13907
sV\u6630
p2891
I2
sV\u5cb7
p2892
I130
sV\u743c
p2893
I1460
sV\u8d42
p2894
I1485
sV\u63c9
p2895
I498
sV\u814a
p2896
I2050
sV\u7dcd
p2897
I2
sV\u5c4c
p2898
I1
sV\u9552
p2899
I8
sV\u71d5
p2900
I3844
sV\u86db
p2901
I428
sV\u695a
p2902
I9839
sV\u635e
p2903
I859
sV\u5fe1
p2904
I421
sV\u7d62
p2905
I1
sV\u59e5
p2906
I230
sV\u94e7
p2907
I12
sV\u7766
p2908
I415
sV\u53e9
p2909
I283
sV\u8c6c
p2910
I2
sV\u62f3
p2911
I2118
sV\u9a78
p2912
I33
sV\u8309
p2913
I130
sV\u5213
p2914
I2
sV\u7094
p2915
I38
sV\u8f96
p2916
I2926
sV\u651d
p2917
I2
sV\u839e
p2918
I694
sV\u7f21
p2919
I5
sV\u5ea0
p2920
I17
sV\u7329
p2921
I497
sV\u52a8
p2922
I200938
sV\u8e2b
p2923
I5
sV\u91aa
p2924
I22
sV\u8233
p2925
I3
sV\u963b
p2926
I6375
sV\u79ba
p2927
I172
sV\u8ec0
p2928
I1
sV\u6447
p2929
I3742
sV\u82c8
p2930
I4
sV\u7e4b
p2931
I1
sV\u9ccc
p2932
I605
sV\u784f
p2933
I6
sV\u55d2
p2934
I97
sV\u9f61
p2935
I4
sV\u9965
p2936
I1046
sV\u72e8
p2937
I3
sV\u8bee
p2938
I25
sV\u6771
p2939
I13
sV\u6175
p2940
I77
sV\u7b79
p2941
I6617
sV\u54fc
p2942
I304
sV\u4e81
p2943
I1
sV\u6c02
p2944
I1
sV\u8587
p2945
I652
sV\u6606
p2946
I3752
sV\u9f8b
p2947
I209
sV\u600a
p2948
I1
sV\u998f
p2949
I84
sV\u7a0e
p2950
I25202
sV\u5095
p2951
I11
sV\u4e16
p2952
I72810
sV\u619f
p2953
I1
sV\u9f20
p2954
I2786
sV\u5c22
p2955
I3
sV\u5626
p2956
I3
sV\u502a
p2957
I707
sV\u86b1
p2958
I17
sV\u5db7
p2959
I23
sV\u7b38
p2960
I2
sV\u94bd
p2961
I60
sV\u6ec1
p2962
I66
sV\u68c5
p2963
I1
sV\u62c9
p2964
I42253
sV\u804a
p2965
I5132
sV\u7ccd
p2966
I27
sV\u5d4c
p2967
I1112
sV\u76d1
p2968
I33129
sV\u5750
p2969
I14091
sV\u5154
p2970
I642
sV\u8dd7
p2971
I9
sV\u6e56
p2972
I15472
sV\u625e
p2973
I5
sV\u9be3
p2974
I1
sV\u8770
p2975
I24
sV\u63f3
p2976
I2
sV\u8174
p2977
I48
sV\u5e76
p2978
I116992
sV\u77fb
p2979
I6
sV\u71ff
p2980
I1
sV\u6984
p2981
I567
sV\u8209
p2982
I1
sV\u6388
p2983
I18046
sV\u5f0b
p2984
I227
sV\u590f
p2985
I11499
sV\u9611
p2986
I160
sV\u7194
p2987
I304
sV\u6a19
p2988
I6
sV\u9ca2
p2989
I7
sV\u7825
p2990
I114
sV\u59a4
p2991
I40
sV\u53a8
p2992
I1369
sV\u90aa
p2993
I1301
sV\u8333
p2994
I1
sV\u7eb6
p2995
I213
sV\u6b43
p2996
I9
sV\u89c4
p2997
I85912
sV\u794f
p2998
I1
sV\u54d2
p2999
I167
sV\u6bd8
p3000
I2
sV\u7fe0
p3001
I920
sV\u5b63
p3002
I27994
sV\u79e4
p3003
I159
sV\u5567
p3004
I139
sV\u7a79
p3005
I194
sV\u5bf8
p3006
I4641
sV\u5785
p3007
I8
sV\u9a87
p3008
I260
sV\u808b
p3009
I642
sV\u8c93
p3010
I1
sV\u9418
p3011
I20
sV\u789b
p3012
I17
sV\u7e9f
p3013
I4
sV\u5d1e
p3014
I2
sV\u8c28
p3015
I3175
sV\u4f2a
p3016
I3294
sV\u722c
p3017
I2228
sV\u56af
p3018
I3
sV\u7830
p3019
I141
sV\u5cb3
p3020
I2058
sV\u85b9
p3021
I6
sV\u8bbd
p3022
I783
sV\u4ebf
p3023
I32623
sV\u77c5
p3024
I2
sV\u5c48
p3025
I2587
sV\u9f4a
p3026
I1
sV\u63cd
p3027
I88
sV\u4e54
p3028
I3372
sV\u775a
p3029
I5
sV\u5bdd
p3030
I671
sV\u9edf
p3031
I33
sV\u6362
p3032
I22352
sV\u6966
p3033
I3
sV\u70eb
p3034
I685
sV\u76ef
p3035
I1322
sV\u556e
p3036
I34
sV\u9870
p3037
I1
sV\u62f7
p3038
I394
sV\u8478
p3039
I3
sV\u68fb
p3040
I4
sV\u6eff
p3041
I4
sV\u7080
p3042
I456
sV\u5403
p3043
I25830
sV\u7684
p3044
I3093559
sV\u5a07
p3045
I1201
sV\u830d
p3046
I1
sV\u8f15
p3047
I1
sV\u7519
p3048
I63
sV\u962f
p3049
I1
sV\u75ae
p3050
I624
sV\u5931
p3051
I45132
sV\u5f35
p3052
I19
sV\u8237
p3053
I290
sV\u53c2
p3054
I57271
sV\u96c4
p3055
I9331
sV\u59c6
p3056
I9559
sV\u604b
p3057
I5478
sV\u82cc
p3058
I172
sV\u664f
p3059
I180
sV\u9559
p3060
I1
sV\u74d8
p3061
I10
sV\u7adc
p3062
I1
sV\u60e0
p3063
I10687
sV\u6ce8
p3064
I54077
sV\u736d
p3065
I36
sV\u95ee
p3066
I107460
sV\u58f0
p3067
I31687
sV\u5ef4
p3068
I4
sV\u5685
p3069
I25
sV\u4e95
p3070
I3882
sV\u5016
p3071
I1
sV\u799b
p3072
I51
sV\u7f9f
p3073
I90
sV\u8d28
p3074
I58745
sV\u4e2a
p3075
I421224
sV\u732c
p3076
I160
sV\u7f34
p3077
I5135
sV\u84b9
p3078
I3
sV\u6538
p3079
I148
sV\u4fbf
p3080
I34505
sV\u70c1
p3081
I415
sV\u5140
p3082
I230
sV\u76c5
p3083
I57
sV\u9846
p3084
I1
sV\u9e4a
p3085
I168
sV\u62cd
p3086
I10273
sV\u6ed5
p3087
I434
sV\u4f54
p3088
I6
sV\u54d9
p3089
I20
sV\u8be7
p3090
I252
sV\u6866
p3091
I160
sV\u9970
p3092
I7256
sV\u9001
p3093
I19227
sV\u9605
p3094
I12579
sV\u7784
p3095
I1700
sV\u820d
p3096
I5337
sV\u638c
p3097
I11784
sV\u6f94
p3098
I11
sV\u5598
p3099
I1238
sV\u5b9c
p3100
I9862
sV\u9c9e
p3101
I2
sV\u6021
p3102
I1571
sV\u6625
p3103
I23675
sV\u6c29
p3104
I17
sV\u522d
p3105
I1
sV\u5831
p3106
I3
sV\u6cbe
p3107
I933
sV\u7543
p3108
I1
sV\u7b47
p3109
I5
sV\u5eca
p3110
I1501
sV\u83cc
p3111
I5376
sV\u674f
p3112
I1269
sV\u89d0
p3113
I151
sV\u6d53
p3114
I4878
sV\u8fd4
p3115
I5933
sV\u5357
p3116
I65607
sV\u75d8
p3117
I567
sV\u5f5f
p3118
I20
sV\u6de8
p3119
I1
sV\u53ec
p3120
I12908
sV\u94ee
p3121
I185
sV\u80f6
p3122
I3563
sV\u6479
p3123
I155
sV\u9887
p3124
I4240
sV\u7b06
p3125
I72
sV\u5f89
p3126
I80
sV\u828b
p3127
I161
sV\u7d0a
p3128
I689
sV\u6912
p3129
I844
sV\u5316
p3130
I133715
sV\u7c9f
p3131
I450
sV\u8424
p3132
I100
sV\u68a7
p3133
I272
sV\u52ab
p3134
I1901
sV\u54af
p3135
I256
sV\u89bd
p3136
I1
sV\u683c
p3137
I89944
sV\u5240
p3138
I2
sV\u75c5
p3139
I62791
sV\u874e
p3140
I155
sV\u90d7
p3141
I13
sV\u57d9
p3142
I9
sV\u59dd
p3143
I70
sV\u9cdf
p3144
I45
sV\u6162
p3145
I11947
sV\u6b66
p3146
I38750
sV\u4fe9
p3147
I1546
sV\u6d6a
p3148
I10666
sV\u906c
p3149
I2
sV\u74ef
p3150
I48
sV\u9a70
p3151
I5093
sV\u7ef3
p3152
I1787
sV\u4f7e
p3153
I3
sV\u7280
p3154
I300
sV\u9505
p3155
I2406
sV\u7484
p3156
I3
sV\u5807
p3157
I5
sV\u810d
p3158
I61
sV\u608c
p3159
I28
sV\u6a90
p3160
I385
sV\u4e13
p3161
I99254
sV\u6c94
p3162
I7
sV\u9396
p3163
I1
sV\u7719
p3164
I6
sV\u6321
p3165
I5241
sV\u6525
p3166
I107
sV\u8ba6
p3167
I34
sV\u6f29
p3168
I146
sV\u4ea8
p3169
I2073
sV\u9e33
p3170
I159
sV\u8037
p3171
I47
sV\u8c3f
p3172
I1
sV\u7643
p3173
I4
sV\u94c4
p3174
I36
sV\u7847
p3175
I5
sV\u5bc6
p3176
I22849
sV\u624b
p3177
I106754
sV\u80cc
p3178
I18132
sV\u8ad0
p3179
I2
sV\u6e53
p3180
I3
sV\u9759
p3181
I11027
sV\u76d8
p3182
I19543
sV\u8361
p3183
I3615
sV\u64e4
p3184
I23
sV\u8f69
p3185
I717
sV\u6ee8
p3186
I3815
sV\u50ec
p3187
I3
sV\u7b71
p3188
I62
sV\u5af0
p3189
I1
sV\u697d
p3190
I1
sV\u5281
p3191
I1
sV\u9987
p3192
I2
sV\u858f
p3193
I74
sV\u660e
p3194
I113801
sV\u8f93
p3195
I16046
sV\u6812
p3196
I2
sV\u5216
p3197
I1
sV\u67a3
p3198
I629
sV\u69a7
p3199
I21
sV\u5fb3
p3200
I16
sV\u72c1
p3201
I5
sV\u5340
p3202
I6
sV\u9042
p3203
I1603
sV\u74c5
p3204
I2
sV\u5544
p3205
I52
sV\u7ec9
p3206
I20
sV\u864e
p3207
I6832
sV\u6cd5
p3208
I165982
sV\u7256
p3209
I6
sV\u745a
p3210
I408
sV\u9ddf
p3211
I1
sV\u7e5e
p3212
I1
sV\u6062
p3213
I5591
sV\u6c6a
p3214
I2523
sV\u916c
p3215
I4933
sV\u7ff3
p3216
I12
sV\u4e7e
p3217
I1129
sV\u5703
p3218
I137
sV\u5907
p3219
I71382
sV\u9e09
p3220
I1
sV\u800d
p3221
I703
sV\u8a11
p3222
I4
sV\u8c15
p3223
I239
sV\u6d94
p3224
I17
sV\u7619
p3225
I314
sV\u949a
p3226
I168
sV\u781d
p3227
I307
sV\u6221
p3228
I19
sV\u80a2
p3229
I1572
sV\u6425
p3230
I1
sV\u6e29
p3231
I18123
sV\u4fa8
p3232
I1761
sV\u932b
p3233
I3
sV\u8caa
p3234
I1
sV\u502d
p3235
I211
sV\u952f
p3236
I311
sV\u76ae
p3237
I17099
sV\u5a31
p3238
I4776
sV\u78b2
p3239
I3
sV\u8137
p3240
I2
sV\u64ba
p3241
I16
sV\u8d3f
p3242
I2244
sV\u7743
p3243
I1
sV\u7947
p3244
I45
sV\u634b
p3245
I52
sV\u81cc
p3246
I2
sV\u654f
p3247
I9159
sV\u5157
p3248
I2
sV\u5b5b
p3249
I33
sV\u63e0
p3250
I14
sV\u8e69
p3251
I50
sV\u706d
p3252
I5851
sV\u5bf0
p3253
I229
sV\u98f2
p3254
I6
sV\u5df4
p3255
I23677
sV\u5581
p3256
I10
sV\u9083
p3257
I193
sV\u5385
p3258
I11166
sV\u9e87
p3259
I2
sV\u848b
p3260
I5336
sV\u7b0a
p3261
I1
sV\u828f
p3262
I1
sV\u610e
p3263
I42
sV\u7a9f
p3264
I854
sV\u60a3
p3265
I18186
sV\u6ea7
p3266
I41
sV\u54ab
p3267
I155
sV\u97ad
p3268
I792
sV\u8fbd
p3269
I4834
sV\u5440
p3270
I2668
sV\u73c5
p3271
I157
sV\u79c9
p3272
I771
sV\u6dd1
p3273
I1003
sV\u6bd5
p3274
I26745
sV\u5fdd
p3275
I11
sV\u9adf
p3276
I1
sV\u795e
p3277
I39269
sV\u6d66
p3278
I3507
sV\u6b6a
p3279
I709
sV\u966c
p3280
I18
sV\u72ef
p3281
I6
sV\u516e
p3282
I522
sV\u9a74
p3283
I935
sV\u66f7
p3284
I13
sV\u6cfb
p3285
I1044
sV\u8e7c
p3286
I14
sV\u9501
p3287
I5923
sV\u7480
p3288
I188
sV\u7284
p3289
I22
sV\u870d
p3290
I46
sV\u668c
p3291
I6
sV\u6c90
p3292
I533
sV\u6a94
p3293
I1
sV\u7119
p3294
I73
sV\u939a
p3295
I1
sV\u7f1d
p3296
I1798
sV\u5e9c
p3297
I38544
sV\u6325
p3298
I18713
sV\u8baa
p3299
I101
sV\u572d
p3300
I315
sV\u7fb2
p3301
I126
sV\u63ba
p3302
I421
sV\u4f3d
p3303
I436
sV\u94c0
p3304
I425
sV\u57c2
p3305
I37
sV\u7e47
p3306
I24
sV\u6853
p3307
I351
sV\u5657
p3308
I33
sV\u70d8
p3309
I464
sV\u7edc
p3310
I28023
sV\u8561
p3311
I2
sV\u8365
p3312
I58
sV\u62e4
p3313
I1
sV\u7d71
p3314
I4
sV\u5cf0
p3315
I10497
sV\u7b75
p3316
I115
sV\u6f7d
p3317
I1
sV\u9f87
p3318
I14
sV\u5889
p3319
I39
sV\u7a0a
p3320
I1
sV\u600e
p3321
I22928
sV\u521a
p3322
I26171
sV\u581e
p3323
I5
sV\u6fa7
p3324
I95
sV\u772c
p3325
I2
sV\u9cb1
p3326
I18
sV\u7d30
p3327
I1
sV\u59b3
p3328
I32
sV\u7b34
p3329
I1
sV\u6f3c
p3330
I1
sV\u9642
p3331
I51
sV\u5948
p3332
I3372
sV\u8e52
p3333
I89
sV\u7456
p3334
I1
sV\u725a
p3335
I1
sV\u81e3
p3336
I4920
sV\u75eb
p3337
I272
sV\u976c
p3338
I4
sV\u5e72
p3339
I32458
sV\u8178
p3340
I1
sV\u6dfb
p3341
I3305
sV\u8f7c
p3342
I143
sV\u7384
p3343
I1491
sV\u5f07
p3344
I7
sV\u8c11
p3345
I87
sV\u5f9c
p3346
I79
sV\u989e
p3347
I47
sV\u6421
p3348
I49
sV\u6225
p3349
I12
sV\u6829
p3350
I313
sV\u8aaa
p3351
I9
sV\u562d
p3352
I43
sV\u70ae
p3353
I9868
sV\u5c31
p3354
I262061
sV\u7eb2
p3355
I4728
sV\u8737
p3356
I86
sV\u8d3b
p3357
I250
sV\u62ba
p3358
I4
sV\u4e3d
p3359
I12499
sV\u634f
p3360
I645
sV\u8bd4
p3361
I1
sV\u5757
p3362
I14328
sV\u5d5b
p3363
I2
sV\u5b5f
p3364
I2356
sV\u8461
p3365
I2328
sV\u65e0
p3366
I106435
sV\u8869
p3367
I44
sV\u6079
p3368
I22
sV\u88fe
p3369
I19
sV\u5185
p3370
I153669
sV\u9c87
p3371
I19
sV\u7f06
p3372
I1030
sV\u5b89
p3373
I87689
sV\u868b
p3374
I3
sV\u630e
p3375
I95
sV\u4f91
p3376
I151
sV\u8a93
p3377
I1148
sV\u6d12
p3378
I1229
sV\u5716
p3379
I2
sV\u7e9b
p3380
I12
sV\u789f
p3381
I1090
sV\u8024
p3382
I1
sV\u6ca7
p3383
I599
sV\u4f26
p3384
I10066
sV\u742c
p3385
I25
sV\u5ab3
p3386
I554
sV\u7834
p3387
I25004
sV\u83b9
p3388
I535
sV\u4ebb
p3389
I21
sV\u9542
p3390
I46
sV\u7bc9
p3391
I1
sV\u6fd1
p3392
I48
sV\u4e50
p3393
I41978
sV\u94d7
p3394
I5
sV\u53d9
p3395
I2109
sV\u9edb
p3396
I460
sV\u5ddd
p3397
I10078
sV\u98df
p3398
I30580
sV\u82e3
p3399
I37
sV\u6562
p3400
I8329
sV\u6f66
p3401
I131
sV\u70ef
p3402
I442
sV\u536e
p3403
I6
sV\u9e70
p3404
I3186
sV\u9701
p3405
I68
sV\u5203
p3406
I1223
sV\u5c07
p3407
I7
sV\u7a88
p3408
I62
sV\u6e90
p3409
I48811
sV\u5298
p3410
I2
sV\u919a
p3411
I130
sV\u5c9c
p3412
I37
sV\u6721
p3413
I1
sV\u85a2
p3414
I4
sV\u8fa6
p3415
I1
sV\u89aa
p3416
I11
sV\u902f
p3417
I7
sV\u73ae
p3418
I462
sV\u5f31
p3419
I10355
sV\u7db2
p3420
I6
sV\u67b6
p3421
I15933
sV\u96c0
p3422
I1119
sV\u90c4
p3423
I1
sV\u5fc6
p3424
I6540
sV\u664b
p3425
I5061
sV\u59ca
p3426
I268
sV\u88d4
p3427
I792
sV\u5457
p3428
I134
sV\u5e5b
p3429
I4
sV\u7cdc
p3430
I326
sV\u8165
p3431
I587
sV\u5ef0
p3432
I1
sV\u8bfe
p3433
I22232
sV\u5085
p3434
I2579
sV\u818f
p3435
I1776
sV\u620e
p3436
I374
sV\u4e91
p3437
I15109
sV\u8b93
p3438
I3
sV\u7597
p3439
I37343
sV\u7f9b
p3440
I2
sV\u501a
p3441
I492
sV\u799f
p3442
I3
sV\u63a3
p3443
I106
sV\u8124
p3444
I1
sV\u6da7
p3445
I148
sV\u4e26
p3446
I9
sV\u57ab
p3447
I1679
sV\u94ad
p3448
I5
sV\u752c
p3449
I175
sV\u51af
p3450
I2522
sV\u7f30
p3451
I55
sV\u5bb3
p3452
I21639
sV\u7934
p3453
I125
sV\u82b9
p3454
I461
sV\u6d3c
p3455
I238
sV\u5740
p3456
I6894
sV\u5144
p3457
I3833
sV\u64cd
p3458
I15161
sV\u6ed1
p3459
I8912
sV\u4f50
p3460
I1666
sV\u68d5
p3461
I608
sV\u7656
p3462
I243
sV\u52d9
p3463
I14
sV\u77eb
p3464
I722
sV\u956c
p3465
I19
sV\u9974
p3466
I34
sV\u65f7
p3467
I534
sV\u8378
p3468
I15
sV\u69ff
p3469
I42
sV\u9601
p3470
I3447
sV\u7780
p3471
I1
sV\u9005
p3472
I127
sV\u7184
p3473
I371
sV\u5d07
p3474
I4349
sV\u840d
p3475
I993
sV\u658c
p3476
I1920
sV\u8815
p3477
I288
sV\u6994
p3478
I167
sV\u5398
p3479
I2161
sV\u7c1d
p3480
I1
sV\u9a9e
p3481
I100
sV\u6025
p3482
I16046
sV\u88aa
p3483
I3
sV\u542d
p3484
I166
sV\u912f
p3485
I18
sV\u7cb2
p3486
I84
sV\u5835
p3487
I2169
sV\u8537
p3488
I75
sV\u54c2
p3489
I7
sV\u5ec6
p3490
I48
sV\u58ca
p3491
I1
sV\u8fd0
p3492
I64167
sV\u7ddc
p3493
I2
sV\u67e0
p3494
I335
sV\u8a69
p3495
I1
sV\u746d
p3496
I97
sV\u55ec
p3497
I12
sV\u6279
p3498
I30542
sV\u80fa
p3499
I973
sV\u6c7d
p3500
I79153
sV\u8afe
p3501
I1
sV\u5981
p3502
I13
sV\u5f85
p3503
I25961
sV\u5589
p3504
I1218
sV\u888b
p3505
I3189
sV\u8e8f
p3506
I120
sV\u6d0e
p3507
I7
sV\u7a97
p3508
I5168
sV\u5916
p3509
I150966
sV\u6ca3
p3510
I49
sV\u8428
p3511
I9966
sV\u7030
p3512
I1
sV\u54b3
p3513
I1261
sV\u7634
p3514
I43
sV\u6c38
p3515
I13361
sV\u83bd
p3516
I386
sV\u79c1
p3517
I10176
sV\u9b42
p3518
I2320
sV\u7fc5
p3519
I654
sV\u5e44
p3520
I116
sV\u9146
p3521
I13
sV\u75c9
p3522
I303
sV\u5448
p3523
I5841
sV\u6bcd
p3524
I21529
sV\u8d4e
p3525
I517
sV\u61d1
p3526
I39
sV\u8352
p3527
I3007
sV\u7956
p3528
I6645
sV\u90db
p3529
I1
sV\u7f5a
p3530
I9150
sV\u8ce3
p3531
I4
sV\u6b62
p3532
I23733
sV\u676a
p3533
I1
sV\u9a6c
p3534
I58929
sV\u7eef
p3535
I164
sV\u5372
p3536
I1
sV\u9674
p3537
I3
sV\u8c78
p3538
I6
sV\u4f7a
p3539
I3
sV\u66ff
p3540
I7739
sV\u5207
p3541
I27834
sV\u9509
p3542
I32
sV\u7488
p3543
I10
sV\u4e0f
p3544
I3
sV\u8111
p3545
I20189
sV\u8715
p3546
I220
sV\u9996
p3547
I53439
sV\u5c98
p3548
I32
sV\u9f9a
p3549
I774
sV\u731d
p3550
I290
sV\u8ba2
p3551
I15095
sV\u4ea4
p3552
I80948
sV\u81a6
p3553
I12
sV\u982b
p3554
I40
sV\u9e2f
p3555
I146
sV\u7dae
p3556
I1
sV\u73b2
p3557
I1753
sV\u803b
p3558
I1637
sV\u5bc2
p3559
I1565
sV\u9ec4
p3560
I26927
sV\u7247
p3561
I30952
sV\u51c6
p3562
I70959
sV\u94c8
p3563
I1
sV\u86d4
p3564
I38
sV\u68e0
p3565
I319
sV\u6ee4
p3566
I1341
sV\u8569
p3567
I2
sV\u7171
p3568
I1
sV\u50f0
p3569
I3
sV\u56f4
p3570
I28291
sV\u8ffa
p3571
I1
sV\u5881
p3572
I4
sV\u898b
p3573
I3
sV\u760a
p3574
I6
sV\u8f8f
p3575
I7
sV\u6212
p3576
I2771
sV\u7b97
p3577
I39538
sV\u5e1a
p3578
I82
sV\u779f
p3579
I62
sV\u541e
p3580
I1522
sV\u6da3
p3581
I123
sV\u63a7
p3582
I35404
sV\u59ab
p3583
I11
sV\u7b2c
p3584
I160396
sV\u5faf
p3585
I1
sV\u90b1
p3586
I838
sV\u7130
p3587
I741
sV\u55b3
p3588
I97
sV\u82bd
p3589
I686
sV\u78c1
p3590
I2938
sV\u7ec5
p3591
I2214
sV\u60d1
p3592
I3724
sV\u7856
p3593
I1
sV\u5cd9
p3594
I375
sV\u745e
p3595
I17136
sV\u8de3
p3596
I2
sV\u4ee5
p3597
I373328
sV\u79eb
p3598
I2
sV\u9170
p3599
I364
sV\u5272
p3600
I2238
sV\u9774
p3601
I476
sV\u837c
p3602
I259
sV\u67ff
p3603
I490
sV\u7980
p3604
I210
sV\u5d03
p3605
I46
sV\u4f0f
p3606
I3414
sV\u9896
p3607
I2331
sV\u721d
p3608
I1
sV\u949e
p3609
I655
sV\u6821
p3610
I75285
sV\u6e25
p3611
I170
sV\u86aa
p3612
I31
sV\u9f2f
p3613
I7
sV\u7cae
p3614
I2638
sV\u9533
p3615
I1
sV\u68b6
p3616
I2
sV\u6eba
p3617
I319
sV\u873f
p3618
I201
sV\u5ac2
p3619
I402
sV\u56ca
p3620
I3566
sV\u8bcc
p3621
I22
sV\u5b57
p3622
I36761
sV\u575f
p3623
I588
sV\u8861
p3624
I9333
sV\u69e0
p3625
I1
sV\u8469
p3626
I63
sV\u65e8
p3627
I3016
sV\u5bec
p3628
I1
sV\u51f0
p3629
I781
sV\u57f4
p3630
I2
sV\u6c79
p3631
I454
sV\u8efa
p3632
I10
sV\u5b81
p3633
I15773
sV\u9e83
p3634
I3
sV\u8693
p3635
I47
sV\u7897
p3636
I1903
sV\u5b16
p3637
I14
sV\u729b
p3638
I5
sV\u5d1a
p3639
I186
sV\u749f
p3640
I85
sV\u8c24
p3641
I139
sV\u782c
p3642
I3
sV\u7230
p3643
I33
sV\u7434
p3644
I2463
sV\u8fb9
p3645
I31557
sV\u6e38
p3646
I94632
sV\u603c
p3647
I9
sV\u7bc1
p3648
I8
sV\u5a40
p3649
I56
sV\u5c44
p3650
I2
sV\u954a
p3651
I20
sV\u7b56
p3652
I33974
sV\u5fd9
p3653
I7107
sV\u51dd
p3654
I2328
sV\u94df
p3655
I77
sV\u80e7
p3656
I219
sV\u7cef
p3657
I220
sV\u64ff
p3658
I1
sV\u5e03
p3659
I58104
sV\u9709
p3660
I1717
sV\u7688
p3661
I56
sV\u7f19
p3662
I34
sV\u6b21
p3663
I135378
sV\u6d25
p3664
I10400
sV\u9a2b
p3665
I1
sV\u85aa
p3666
I14234
sV\u592d
p3667
I344
sV\u9633
p3668
I26018
sV\u71b2
p3669
I13
sV\u4f39
p3670
I3
sV\u823b
p3671
I4
sV\u9ac0
p3672
I6
sV\u9cc4
p3673
I357
sV\u53c6
p3674
I1
sV\u6a4b
p3675
I1
sV\u4fce
p3676
I80
sV\u6653
p3677
I8120
sV\u5857
p3678
I3
sV\u7ed8
p3679
I2611
sV\u915d
p3680
I769
sV\u70dc
p3681
I34
sV\u8d65
p3682
I1
sV\u796d
p3683
I2149
sV\u58ec
p3684
I149
sV\u52f0
p3685
I13
sV\u8bf6
p3686
I4
sV\u8dfa
p3687
I48
sV\u87fe
p3688
I101
sV\u9f83
p3689
I25
sV\u7802
p3690
I550
sV\u9187
p3691
I1819
sV\u7206
p3692
I8906
sV\u740a
p3693
I43
sV\u6e0e
p3694
I248
sV\u8793
p3695
I3
sV\u6012
p3696
I3500
sV\u739b
p3697
I4343
sV\u5c1a
p3698
I16366
sV\u911c
p3699
I3
sV\u759f
p3700
I326
sV\u561e
p3701
I11
sV\u8d24
p3702
I1985
sV\u61a7
p3703
I429
sV\u5bab
p3704
I11459
sV\u98ad
p3705
I1
sV\u7330
p3706
I1
sV\u94b5
p3707
I170
sV\u80bd
p3708
I219
sV\u5b40
p3709
I58
sV\u7cc5
p3710
I71
sV\u68cd
p3711
I794
sV\u8052
p3712
I20
sV\u5ed9
p3713
I5
sV\u765e
p3714
I19
sV\u6862
p3715
I179
sV\u81e7
p3716
I309
sV\u6266
p3717
I5
sV\u996c
p3718
I51
sV\u77f3
p3719
I27881
sV\u5072
p3720
I1
sV\u9574
p3721
I1
sV\u8f78
p3722
I19
sV\u817c
p3723
I108
sV\u7b80
p3724
I26041
sV\u5f03
p3725
I11901
sV\u5107
p3726
I2
sV\u9609
p3727
I86
sV\u6390
p3728
I365
sV\u9a96
p3729
I5
sV\u5f98
p3730
I554
sV\u519c
p3731
I34078
sV\u6a21
p3732
I37115
sV\u88a2
p3733
I13
sV\u82a6
p3734
I730
sV\u7eae
p3735
I13
sV\u5435
p3736
I1210
sV\u4e39
p3737
I7714
sV\u66be
p3738
I7
sV\u9dc4
p3739
I1
sV\u7147
p3740
I5
sV\u6d4f
p3741
I1394
sV\u4ece
p3742
I140503
sV\u6753
p3743
I30
sV\u5957
p3744
I16408
sV\u7fd8
p3745
I527
sV\u555f
p3746
I1
sV\u4f63
p3747
I947
sV\u6de4
p3748
I290
sV\u59ec
p3749
I1149
sV\u53f0
p3750
I72991
sV\u4ff8
p3751
I103
sV\u607d
p3752
I71
sV\u86fe
p3753
I55
sV\u9883
p3754
I1
sV\u7f02
p3755
I19
sV\u5b85
p3756
I2332
sV\u5189
p3757
I377
sV\u730a
p3758
I2
sV\u4f8d
p3759
I986
sV\u690e
p3760
I1042
sV\u8093
p3761
I46
sV\u5d16
p3762
I894
sV\u9818
p3763
I2
sV\u961c
p3764
I873
sV\u729f
p3765
I29
sV\u8c20
p3766
I8
sV\u4f22
p3767
I44
sV\u66a7
p3768
I339
sV\u8028
p3769
I5
sV\u5cab
p3770
I42
sV\u7430
p3771
I68
sV\u50b3
p3772
I6
sV\u6838
p3773
I35136
sV\u663c
p3774
I708
sV\u5c40
p3775
I53761
sV\u9546
p3776
I1
sV\u5048
p3777
I11
sV\u934a
p3778
I1
sV\u4e4c
p3779
I6279
sV\u894e
p3780
I2
sV\u94db
p3781
I59
sV\u7b5a
p3782
I13
sV\u57dd
p3783
I2
sV\u715e
p3784
I511
sV\u6f62
p3785
I252
sV\u6566
p3786
I3382
sV\u9e6c
p3787
I8
sV\u7aef
p3788
I15848
sV\u9274
p3789
I6980
sV\u867c
p3790
I1
sV\u62ff
p3791
I22267
sV\u5803
p3792
I91
sV\u7a84
p3793
I1413
sV\u9109
p3794
I2
sV\u8511
p3795
I385
sV\u8315
p3796
I14
sV\u6294
p3797
I3
sV\u83aa
p3798
I14
sV\u5f2d
p3799
I60
sV\u79ae
p3800
I1
sV\u5531
p3801
I4898
sV\u61be
p3802
I2142
sV\u7843
p3803
I9
sV\u7647
p3804
I6
sV\u53ca
p3805
I117852
sV\u82d4
p3806
I274
sV\u545b
p3807
I133
sV\u8d61
p3808
I152
sV\u6ce0
p3809
I26
sV\u8169
p3810
I64
sV\u60e8
p3811
I2803
sV\u8df6
p3812
I10
sV\u6979
p3813
I57
sV\u8bfa
p3814
I16349
sV\u81fe
p3815
I45
sV\u5c81
p3816
I22023
sV\u7406
p3817
I204611
sV\u8d8b
p3818
I9798
sV\u4e8d
p3819
I6
sV\u680e
p3820
I11
sV\u5c16
p3821
I4478
sV\u9918
p3822
I2
sV\u971c
p3823
I1152
sV\u739f
p3824
I22
sV\u501e
p3825
I2
sV\u8d20
p3826
I1
sV\u4e22
p3827
I3179
sV\u67a7
p3828
I1
sV\u7f2c
p3829
I18
sV\u94b1
p3830
I30175
sV\u7530
p3831
I19130
sV\u51b3
p3832
I72160
sV\u7334
p3833
I1231
sV\u6938
p3834
I3
sV\u7cc1
p3835
I2
sV\u9e42
p3836
I29
sV\u5148
p3837
I81745
sV\u884e
p3838
I4
sV\u705e
p3839
I508
sV\u89e3
p3840
I94173
sV\u626a
p3841
I69
sV\u9570
p3842
I143
sV\u65fb
p3843
I49
sV\u877c
p3844
I17
sV\u63ff
p3845
I4
sV\u9009
p3846
I66740
sV\u6f8c
p3847
I4
sV\u8411
p3848
I1
sV\u6590
p3849
I755
sV\u9a9a
p3850
I1536
sV\u6c21
p3851
I58
sV\u6029
p3852
I17
sV\u82aa
p3853
I56
sV\u5e2d
p3854
I20353
sV\u9b2f
p3855
I1
sV\u5431
p3856
I223
sV\u9133
p3857
I1
sV\u76b2
p3858
I25
sV\u853b
p3859
I54
sV\u7747
p3860
I13
sV\u54c6
p3861
I79
sV\u6d4b
p3862
I31792
sV\u85d0
p3863
I95
sV\u6153
p3864
I2
sV\u83d4
p3865
I3
sV\u5f57
p3866
I249
sV\u79d8
p3867
I13219
sV\u77dc
p3868
I128
sV\u535f
p3869
I11
sV\u8c61
p3870
I42200
sV\u6de0
p3871
I1
sV\u8069
p3872
I41
sV\u7471
p3873
I1
sV\u96f2
p3874
I12
sV\u7275
p3875
I3653
sV\u5f81
p3876
I21020
sV\u9487
p3877
I3
sV\u7706
p3878
I1
sV\u5389
p3879
I2893
sV\u710a
p3880
I631
sV\u6512
p3881
I541
sV\u7c97
p3882
I3330
sV\u591a
p3883
I251176
sV\u709f
p3884
I12
sV\u8228
p3885
I2
sV\u5eab
p3886
I2
sV\u52b3
p3887
I25031
sV\u91b5
p3888
I3
sV\u8bb9
p3889
I197
sV\u6a38
p3890
I4
sV\u7fc1
p3891
I1677
sV\u73c9
p3892
I36
sV\u914a
p3893
I37
sV\u67d1
p3894
I208
sV\u9cd7
p3895
I86
sV\u795a
p3896
I158
sV\u55dd
p3897
I106
sV\u4fe1
p3898
I102299
sV\u7eeb
p3899
I52
sV\u9670
p3900
I2
sV\u72f3
p3901
I2
sV\u9074
p3902
I190
sV\u6cf7
p3903
I26
sV\u4f76
p3904
I58
sV\u5a03
p3905
I2036
sV\u7288
p3906
I1
sV\u4e0b
p3907
I219925
sV\u6c8c
p3908
I126
sV\u6690
p3909
I3
sV\u6094
p3910
I1650
sV\u7b19
p3911
I98
sV\u9e2b
p3912
I2
sV\u5d2d
p3913
I713
sV\u75b2
p3914
I4123
sV\u8c37
p3915
I6317
sV\u6fb6
p3916
I18
sV\u803f
p3917
I845
sV\u63be
p3918
I16
sV\u7447
p3919
I1
sV\u92c8
p3920
I3
sV\u86d0
p3921
I15
sV\u6253
p3922
I70743
sV\u955d
p3923
I16
sV\u74dc
p3924
I2597
sV\u6ee0
p3925
I2
sV\u8369
p3926
I31
sV\u62e8
p3927
I4117
sV\u7771
p3928
I1
sV\u56f0
p3929
I15596
sV\u95f2
p3930
I5904
sV\u6b79
p3931
I466
sV\u5e81
p3932
I1
sV\u5885
p3933
I942
sV\u8f8b
p3934
I49
sV\u898f
p3935
I2
sV\u8393
p3936
I390
sV\u6412
p3937
I1
sV\u5e16
p3938
I1594
sV\u951c
p3939
I27
sV\u719f
p3940
I14744
sV\u65a7
p3941
I679
sV\u8328
p3942
I3012
sV\u9cad
p3943
I2
sV\u7d2c
p3944
I3
sV\u59af
p3945
I14
sV\u90b5
p3946
I1348
sV\u7134
p3947
I1
sV\u6b38
p3948
I2
sV\u84bd
p3949
I30
sV\u5f40
p3950
I18
sV\u78c5
p3951
I882
sV\u5944
p3952
I138
sV\u9646
p3953
I25577
sV\u72c9
p3954
I1
sV\u5348
p3955
I17144
sV\u904a
p3956
I8
sV\u60d5
p3957
I1477
sV\u785a
p3958
I9
sV\u54dd
p3959
I27
sV\u725e
p3960
I5
sV\u4ee1
p3961
I31
sV\u8be3
p3962
I162
sV\u6666
p3963
I316
sV\u606a
p3964
I374
sV\u79ef
p3965
I30388
sV\u5472
p3966
I15
sV\u6df7
p3967
I7970
sV\u61ff
p3968
I182
sV\u9805
p3969
I2
sV\u7984
p3970
I528
sV\u5507
p3971
I1232
sV\u4f0b
p3972
I1
sV\u8c0d
p3973
I1377
sV\u6d8c
p3974
I2753
sV\u8611
p3975
I290
sV\u6790
p3976
I23879
sV\u8015
p3977
I1190
sV\u6194
p3978
I148
sV\u5b98
p3979
I31691
sV\u989a
p3980
I74
sV\u559c
p3981
I21116
sV\u6e21
p3982
I3654
sV\u4fa0
p3983
I1567
sV\u80aa
p3984
I2876
sV\u5631
p3985
I782
sV\u8d37
p3986
I11799
sV\u6eb6
p3987
I1299
sV\u873b
p3988
I77
sV\u6f4b
p3989
I7
sV\u8dcc
p3990
I5671
sV\u575b
p3991
I15905
sV\u6fe0
p3992
I60
sV\u8865
p3993
I21637
sV\u9aee
p3994
I2
sV\u7671
p3995
I1
sV\u94f2
p3996
I636
sV\u7075
p3997
I12235
sV\u6a79
p3998
I24
sV\u8302
p3999
I1449
sV\u8906
p4000
I2
sV\u5e14
p4001
I26
sV\u8297
p4002
I5
sV\u51a1
p4003
I1
sV\u94a3
p4004
I46
sV\u7624
p4005
I4994
sV\u9aa7
p4006
I52
sV\u822c
p4007
I23625
sV\u69b1
p4008
I3
sV\u75b9
p4009
I1081
sV\u573a
p4010
I204527
sV\u5d3e
p4011
I1
sV\u81c1
p4012
I6
sV\u6342
p4013
I332
sV\u754e
p4014
I3
sV\u7b52
p4015
I1168
sV\u62d7
p4016
I124
sV\u6edf
p4017
I15
sV\u8d5e
p4018
I7676
sV\u74e3
p4019
I372
sV\u5664
p4020
I26
sV\u80eb
p4021
I106
sV\u626c
p4022
I9109
sV\u4ff5
p4023
I1
sV\u7478
p4024
I1
sV\u6101
p4025
I1329
sV\u6705
p4026
I2
sV\u9890
p4027
I755
sV\u7f15
p4028
I365
sV\u679a
p4029
I4046
sV\u4e1f
p4030
I3
sV\u6d9e
p4031
I33
sV\u5423
p4032
I1
sV\u73a2
p4033
I4
sV\u602b
p4034
I3
sV\u662f
p4035
I873595
sV\u85ae
p4036
I16
sV\u6c33
p4037
I1
sV\u8bb2
p4038
I27131
sV\u7237
p4039
I2498
sV\u54b8
p4040
I1046
sV\u783b
p4041
I28
sV\u9dbe
p4042
I1
sV\u904b
p4043
I7
sV\u534d
p4044
I1
sV\u5951
p4045
I2130
sV\u78d0
p4046
I119
sV\u5f55
p4047
I31719
sV\u7ed4
p4048
I33
sV\u6559
p4049
I108872
sV\u7765
p4050
I14
sV\u5fea
p4051
I41
sV\u836d
p4052
I2
sV\u65ee
p4053
I14
sV\u8f75
p4054
I3
sV\u5e7f
p4055
I65734
sV\u8202
p4056
I35
sV\u6b87
p4057
I27
sV\u8e0a
p4058
I264
sV\u7d93
p4059
I6
sV\u5f14
p4060
I1
sV\u6518
p4061
I243
sV\u8f9f
p4062
I1838
sV\u5ca9
p4063
I2958
sV\u832c
p4064
I164
sV\u8930
p4065
I2
sV\u5036
p4066
I1
sV\u9538
p4067
I2
sV\u9b3c
p4068
I3539
sV\u5c3e
p4069
I6661
sV\u80c1
p4070
I7163
sV\u6846
p4071
I2194
sV\u51cb
p4072
I168
sV\u92cd
p4073
I1
sV\u98d1
p4074
I2
sV\u8056
p4075
I1
sV\u69db
p4076
I1645
sV\u865a
p4077
I9672
sV\u6fdf
p4078
I1
sV\u75e3
p4079
I174
sV\u5764
p4080
I1156
sV\u9866
p4081
I1
sV\u9e6a
p4082
I2
sV\u8df3
p4083
I11068
sV\u4ef5
p4084
I3
sV\u6f74
p4085
I30
sV\u7578
p4086
I818
sV\u5afd
p4087
I3
sV\u6001
p4088
I36259
sV\u8180
p4089
I1262
sV\u548e
p4090
I340
sV\u7811
p4091
I1
sV\u9990
p4092
I25
sV\u5a92
p4093
I22457
sV\u6096
p4094
I453
sV\u4f1f
p4095
I9307
sV\u6c9e
p4096
I1
sV\u9021
p4097
I21
sV\u78a6
p4098
I1
sV\u612b
p4099
I45
sV\u7eaa
p4100
I24577
sV\u672f
p4101
I87859
sV\u7337
p4102
I64
sV\u793b
p4103
I17
sV\u8543
p4104
I240
sV\u67c4
p4105
I478
sV\u914b
p4106
I467
sV\u524d
p4107
I202770
sV\u5851
p4108
I3661
sV\u5e55
p4109
I7628
sV\u7fd4
p4110
I2662
sV\u8bdc
p4111
I3
sV\u52e2
p4112
I1
sV\u5eea
p4113
I42
sV\u5377
p4114
I9714
sV\u9a7d
p4115
I7
sV\u5f7f
p4116
I2
sV\u8102
p4117
I5029
sV\u4e08
p4118
I4014
sV\u500c
p4119
I27
sV\u748f
p4120
I6
sV\u970e
p4121
I58
sV\u5c14
p4122
I60237
sV\u96a3
p4123
I3
sV\u7424
p4124
I1
sV\u98a7
p4125
I67
sV\u6db5
p4126
I3039
sV\u8c34
p4127
I516
sV\u79bd
p4128
I4123
sV\u83c1
p4129
I150
sV\u6b46
p4130
I49
sV\u52cb
p4131
I875
sV\u6d4a
p4132
I355
sV\u91cd
p4133
I150999
sV\u54cf
p4134
I2
sV\u774e
p4135
I2
sV\u5ed3
p4136
I449
sV\u76e3
p4137
I6
sV\u9162
p4138
I8
sV\u5464
p4139
I74
sV\u82eb
p4140
I6
sV\u606c
p4141
I196
sV\u6c74
p4142
I167
sV\u57f9
p4143
I26742
sV\u7678
p4144
I115
sV\u9afb
p4145
I91
sV\u787c
p4146
I70
sV\u6301
p4147
I77750
sV\u6f09
p4148
I96
sV\u7b11
p4149
I13244
sV\u9a90
p4150
I354
sV\u5992
p4151
I610
sV\u9c94
p4152
I15
sV\u6396
p4153
I143
sV\u5623
p4154
I19
sV\u9525
p4155
I372
sV\u7ba6
p4156
I1
sV\u7a3b
p4157
I932
sV\u7c3f
p4158
I437
sV\u4f49
p4159
I10
sV\u6ec8
p4160
I1
sV\u514d
p4161
I24266
sV\u5b51
p4162
I40
sV\u86d8
p4163
I4
sV\u695d
p4164
I5
sV\u4fde
p4165
I599
sV\u7565
p4166
I32842
sV\u94e4
p4167
I123
sV\u7f69
p4168
I1424
sV\u816d
p4169
I38
sV\u4e73
p4170
I8391
sV\u69f2
p4171
I12
sV\u8d75
p4172
I9765
sV\u5077
p4173
I3906
sV\u997d
p4174
I232
sV\u5c7f
p4175
I1141
sV\u7ffe
p4176
I1
sV\u6987
p4177
I6
sV\u738b
p4178
I48360
sV\u8c0a
p4179
I2006
sV\u758f
p4180
I2598
sV\u960e
p4181
I806
sV\u7f93
p4182
I1
sV\u5d14
p4183
I1382
sV\u8d9f
p4184
I1044
sV\u52a1
p4185
I130279
sV\u97a3
p4186
I45
sV\u7f28
p4187
I145
sV\u60ad
p4188
I9
sV\u8d34
p4189
I8824
sV\u5236
p4190
I133832
sV\u9738
p4191
I3510
sV\u82c1
p4192
I9
sV\u6042
p4193
I17
sV\u53cb
p4194
I33201
sV\u6c4a
p4195
I15
sV\u9ad1
p4196
I1
sV\u7852
p4197
I169
sV\u9cd5
p4198
I33
sV\u6bdb
p4199
I19869
sV\u845a
p4200
I23
sV\u5360
p4201
I34242
sV\u77e3
p4202
I839
sV\u9062
p4203
I54
sV\u5564
p4204
I1273
sV\u79e7
p4205
I143
sV\u83eb
p4206
I1
sV\u8ff3
p4207
I18
sV\u6d74
p4208
I2906
sV\u56f9
p4209
I22
sV\u797c
p4210
I10
sV\u6405
p4211
I673
sV\u8584
p4212
I5148
sV\u8f88
p4213
I3100
sV\u918c
p4214
I15
sV\u568e
p4215
I155
sV\u5892
p4216
I5
sV\u6296
p4217
I877
sV\u649a
p4218
I1
sV\u5723
p4219
I8360
sV\u5927
p4220
I511504
sV\u7aa6
p4221
I1024
sV\u9e29
p4222
I76
sV\u632b
p4223
I1800
sV\u7caa
p4224
I451
sV\u652f
p4225
I48347
sV\u6f33
p4226
I195
sV\u57b8
p4227
I6
sV\u94ba
p4228
I17
sV\u9ebe
p4229
I159
sV\u65c4
p4230
I6
sV\u4e49
p4231
I48917
sV\u934b
p4232
I2
sV\u504d
p4233
I2
sV\u954f
p4234
I21
sV\u5c55
p4235
I114578
sV\u6659
p4236
I2
sV\u89dc
p4237
I1
sV\u4ede
p4238
I29
sV\u7261
p4239
I500
sV\u5ae6
p4240
I125
sV\u5cea
p4241
I322
sV\u8a71
p4242
I3
sV\u4f73
p4243
I12663
sV\u68f2
p4244
I1
sV\u5177
p4245
I59038
sV\u987d
p4246
I1625
sV\u7efe
p4247
I38
sV\u6083
p4248
I3
sV\u8702
p4249
I1618
sV\u748b
p4250
I480
sV\u560c
p4251
I64
sV\u7893
p4252
I18
sV\u9f12
p4253
I2
sV\u4f9d
p4254
I27549
sV\u90a3
p4255
I93827
sV\u53a5
p4256
I558
sV\u59a9
p4257
I132
sV\u67ad
p4258
I702
sV\u8c30
p4259
I8
sV\u6bb5
p4260
I41897
sV\u8a34
p4261
I2
sV\u71b9
p4262
I498
sV\u9038
p4263
I1611
sV\u533a
p4264
I93158
sV\u7fbd
p4265
I3813
sV\u593e
p4266
I2
sV\u85c1
p4267
I9
sV\u6742
p4268
I13778
sV\u83c5
p4269
I27
sV\u4ec7
p4270
I2023
sV\u6d46
p4271
I1168
sV\u89c9
p4272
I39450
sV\u714e
p4273
I732
sV\u58d3
p4274
I1
sV\u6cdb
p4275
I7109
sV\u835a
p4276
I27
sV\u4e5c
p4277
I17
sV\u895e
p4278
I3
sV\u9762
p4279
I182149
sV\u7ee7
p4280
I24871
sV\u82ef
p4281
I899
sV\u6c70
p4282
I2881
sV\u88f3
p4283
I235
sV\u96f7
p4284
I19667
sV\u51f9
p4285
I487
sV\u7078
p4286
I567
sV\u5ffd
p4287
I6376
sV\u7e7c
p4288
I1
sV\u8284
p4289
I1
sV\u8888
p4290
I44
sV\u9c90
p4291
I3
sV\u5f92
p4292
I3767
sV\u7b15
p4293
I9
sV\u9521
p4294
I3317
sV\u5e27
p4295
I163
sV\u7da6
p4296
I41
sV\u7baa
p4297
I5
sV\u6833
p4298
I4
sV\u7a3f
p4299
I4306
sV\u64c0
p4300
I28
sV\u8043
p4301
I9
sV\u62c4
p4302
I66
sV\u8e47
p4303
I27
sV\u574d
p4304
I233
sV\u5b55
p4305
I7262
sV\u94e0
p4306
I124
sV\u5de6
p4307
I23779
sV\u98e8
p4308
I64
sV\u9179
p4309
I7
sV\u73fa
p4310
I84
sV\u5a7f
p4311
I218
sV\u79fe
p4312
I3
sV\u8c06
p4313
I95
sV\u758b
p4314
I3
sV\u8a0a
p4315
I6
sV\u570c
p4316
I2
sV\u738f
p4317
I1
sV\u900e
p4318
I3
sV\u5d10
p4319
I4
sV\u91a3
p4320
I35
sV\u58a9
p4321
I243
sV\u6cb1
p4322
I120
sV\u8d30
p4323
I111
sV\u4e32
p4324
I2145
sV\u5436
p4325
I1
sV\u70b9
p4326
I132154
sV\u523a
p4327
I10626
sV\u7ebd
p4328
I4083
sV\u84c1
p4329
I8
sV\u6642
p4330
I30
sV\u6c46
p4331
I8
sV\u88c9
p4332
I4
sV\u96cd
p4333
I774
sV\u59d3
p4334
I9453
sV\u4f5c
p4335
I249826
sV\u885e
p4336
I1
sV\u9662
p4337
I83292
sV\u5364
p4338
I227
sV\u83ef
p4339
I3
sV\u89f3
p4340
I4
sV\u50f9
p4341
I12
sV\u7178
p4342
I19
sV\u5efd
p4343
I1
sV\u6401
p4344
I695
sV\u6809
p4345
I82
sV\u7c11
p4346
I3
sV\u8019
p4347
I40
sV\u629a
p4348
I2441
sV\u8e1d
p4349
I341
sV\u5f27
p4350
I577
sV\u7ca6
p4351
I1
sV\u652b
p4352
I136
sV\u632f
p4353
I5017
sV\u80ae
p4354
I161
sV\u8eb2
p4355
I1717
sV\u7737
p4356
I324
sV\u51b8
p4357
I1
sV\u5fbc
p4358
I5
sV\u63c4
p4359
I29
sV\u564d
p4360
I1
sV\u5c51
p4361
I852
sV\u5a55
p4362
I174
sV\u6059
p4363
I112
sV\u8fdc
p4364
I35265
sV\u56e2
p4365
I54129
sV\u5ce6
p4366
I179
sV\u5aea
p4367
I1
sV\u60ee
p4368
I226
sV\u6ef2
p4369
I1
sV\u5777
p4370
I255
sV\u74f6
p4371
I4083
sV\u9079
p4372
I13
sV\u78fe
p4373
I53
sV\u8502
p4374
I1
sV\u768b
p4375
I125
sV\u890a
p4376
I4
sV\u540c
p4377
I189979
sV\u5e10
p4378
I3497
sV\u8497
p4379
I23
sV\u6218
p4380
I135581
sV\u57a1
p4381
I26
sV\u7620
p4382
I82
sV\u51a5
p4383
I351
sV\u9ca7
p4384
I82
sV\u65ad
p4385
I38255
sV\u842c
p4386
I6
sV\u6fb1
p4387
I1
sV\u8e30
p4388
I3
sV\u8bc9
p4389
I26342
sV\u50cf
p4390
I35317
sV\u734e
p4391
I1
sV\u64d7
p4392
I3
sV\u815a
p4393
I25
sV\u68df
p4394
I1
sV\u8b5e
p4395
I10
sV\u9562
p4396
I5
sV\u996a
p4397
I320
sV\u80ef
p4398
I54
sV\u4ff1
p4399
I7163
sV\u6874
p4400
I1
sV\u94f7
p4401
I5
sV\u53f9
p4402
I2945
sV\u7278
p4403
I10
sV\u9efb
p4404
I35
sV\u5dfd
p4405
I39
sV\u7c7c
p4406
I7
sV\u8680
p4407
I945
sV\u8084
p4408
I30
sV\u4f86
p4409
I26
sV\u6b09
p4410
I3
sV\u750d
p4411
I2
sV\u948c
p4412
I1
sV\u7f11
p4413
I12
sV\u9894
p4414
I37
sV\u4e1b
p4415
I1373
sV\u8d1d
p4416
I7105
sV\u5c27
p4417
I654
sV\u602f
p4418
I412
sV\u83ae
p4419
I1
sV\u4eb0
p4420
I1
sV\u97b6
p4421
I1
sV\u7e3b
p4422
I23
sV\u91ba
p4423
I48
sV\u66c0
p4424
I1
sV\u60c4
p4425
I3
sV\u8c47
p4426
I11
sV\u964b
p4427
I690
sV\u904f
p4428
I1614
sV\u7ed0
p4429
I3
sV\u5955
p4430
I645
sV\u78d4
p4431
I15
sV\u7761
p4432
I8901
sV\u96e0
p4433
I11
sV\u7165
p4434
I1
sV\u90e4
p4435
I20
sV\u8f71
p4436
I18
sV\u5477
p4437
I33
sV\u77f6
p4438
I1199
sV\u5e7b
p4439
I3201
sV\u7bfe
p4440
I21
sV\u8e06
p4441
I1
sV\u778b
p4442
I1
sV\u880a
p4443
I3
sV\u718f
p4444
I720
sV\u920e
p4445
I1
sV\u7b93
p4446
I30
sV\u5914
p4447
I102
sV\u8f9b
p4448
I5445
sV\u7720
p4449
I4421
sV\u50a5
p4450
I30
sV\u7b28
p4451
I748
sV\u64ad
p4452
I23986
sV\u852c
p4453
I1927
sV\u6eb1
p4454
I6
sV\u68b5
p4455
I250
sV\u8934
p4456
I36
sV\u5636
p4457
I220
sV\u72b9
p4458
I3720
sV\u503a
p4459
I10918
sV\u7cbd
p4460
I133
sV\u57cb
p4461
I3018
sV\u94cd
p4462
I8
sV\u51cf
p4463
I26429
sV\u724e
p4464
I2
sV\u9ed1
p4465
I17984
sV\u5bd3
p4466
I1297
sV\u98d5
p4467
I26
sV\u65d7
p4468
I10510
sV\u8656
p4469
I1
sV\u6fdb
p4470
I47
sV\u805a
p4471
I7164
sV\u69df
p4472
I326
sV\u5760
p4473
I1069
sV\u73e3
p4474
I3
sV\u9e66
p4475
I157
sV\u87eb
p4476
I1
sV\u656c
p4477
I5158
sV\u8bf3
p4478
I10
sV\u95f7
p4479
I2286
sV\u5cfd
p4480
I2
sV\u6005
p4481
I126
sV\u4e86
p4482
I626432
sV\u740d
p4483
I10
sV\u5c92
p4484
I1
sV\u9994
p4485
I21
sV\u6696
p4486
I3418
sV\u4f1b
p4487
I1
sV\u609a
p4488
I104
sV\u8c1d
p4489
I8
sV\u6a9e
p4490
I7
sV\u9621
p4491
I21
sV\u5323
p4492
I255
sV\u5d27
p4493
I33
sV\u7ea6
p4494
I42671
sV\u672b
p4495
I10218
sV\u82ae
p4496
I200
sV\u7537
p4497
I36246
sV\u96b6
p4498
I1219
sV\u90ba
p4499
I178
sV\u67c0
p4500
I5
sV\u8343
p4501
I143
sV\u914f
p4502
I1
sV\u83d8
p4503
I3
sV\u6c5d
p4504
I571
sV\u846d
p4505
I16
sV\u62ee
p4506
I157
sV\u8875
p4507
I1
sV\u5577
p4508
I44
sV\u5f7b
p4509
I7329
sV\u6c83
p4510
I5942
sV\u8106
p4511
I2245
sV\u870a
p4512
I9
sV\u5a0c
p4513
I14
sV\u6c18
p4514
I28
sV\u809b
p4515
I396
sV\u9ca3
p4516
I2
sV\u7428
p4517
I232
sV\u67b5
p4518
I2
sV\u5f3a
p4519
I81352
sV\u553e
p4520
I381
sV\u89c1
p4521
I52709
sV\u8fc5
p4522
I9847
sV\u85c9
p4523
I446
sV\u91d1
p4524
I105465
sV\u54d3
p4525
I47
sV\u7352
p4526
I71
sV\u855e
p4527
I9
sV\u5468
p4528
I54182
sV\u6070
p4529
I5248
sV\u84f3
p4530
I1
sV\u6674
p4531
I996
sV\u53fd
p4532
I157
sV\u6901
p4533
I69
sV\u9a8c
p4534
I40835
sV\u9694
p4535
I5138
sV\u6996
p4536
I1
sV\u831d
p4537
I2
sV\u7ba2
p4538
I1
sV\u77aa
p4539
I453
sV\u6e2f
p4540
I22418
sV\u83b2
p4541
I1901
sV\u7a37
p4542
I162
sV\u5cb8
p4543
I7714
sV\u52bc
p4544
I6
sV\u763f
p4545
I3
sV\u68c0
p4546
I28193
sV\u8247
p4547
I14903
sV\u9e4f
p4548
I2685
sV\u5151
p4549
I1816
sV\u76d4
p4550
I457
sV\u6d59
p4551
I5532
sV\u4fda
p4552
I62
sV\u82dc
p4553
I9
sV\u51e6
p4554
I1
sV\u94e8
p4555
I107
sV\u6dee
p4556
I1961
sV\u8171
p4557
I123
sV\u5a77
p4558
I657
sV\u507b
p4559
I36
sV\u8a02
p4560
I5
sV\u6387
p4561
I39
sV\u8006
p4562
I115
sV\u798b
p4563
I2
sV\u860a
p4564
I1
sV\u819b
p4565
I346
sV\u879f
p4566
I1
sV\u5ea5
p4567
I56
sV\u7f24
p4568
I281
sV\u54a9
p4569
I9
sV\u7528
p4570
I247934
sV\u60b1
p4571
I21
sV\u8734
p4572
I54
sV\u7cb9
p4573
I1781
sV\u543e
p4574
I1168
sV\u88c1
p4575
I14184
sV\u6046
p4576
I4
sV\u84c9
p4577
I841
sV\u59cb
p4578
I54874
sV\u5fcf
p4579
I198
sV\u90d1
p4580
I6557
sV\u55d3
p4581
I498
sV\u7252
p4582
I99
sV\u96d5
p4583
I2812
sV\u6bd7
p4584
I301
sV\u8e5a
p4585
I6
sV\u5960
p4586
I1523
sV\u5f64
p4587
I478
sV\u73e7
p4588
I4
sV\u89eb
p4589
I1
sV\u966a
p4590
I3457
sV\u6170
p4591
I2399
sV\u97ff
p4592
I2
sV\u6e05
p4593
I47872
sV\u8f84
p4594
I511
sV\u7a0d
p4595
I4837
sV\u7011
p4596
I944
sV\u9190
p4597
I20
sV\u7615
p4598
I1
sV\u8c19
p4599
I240
sV\u649e
p4600
I5773
sV\u9e25
p4601
I253
sV\u6f2f
p4602
I166
sV\u94be
p4603
I390
sV\u8d43
p4604
I260
sV\u4e45
p4605
I17499
sV\u8347
p4606
I9
sV\u7bcc
p4607
I6
sV\u5051
p4608
I1
sV\u9553
p4609
I21
sV\u6c59
p4610
I1
sV\u8dd8
p4611
I7
sV\u83dc
p4612
I10053
sV\u50e6
p4613
I1
sV\u7469
p4614
I9
sV\u95e8
p4615
I90440
sV\u4f6f
p4616
I136
sV\u6cee
p4617
I39
sV\u8071
p4618
I2
sV\u8675
p4619
I1
sV\u517b
p4620
I30140
sV\u7efa
p4621
I42
sV\u6e83
p4622
I1803
sV\u8902
p4623
I163
sV\u8306
p4624
I18
sV\u9f0e
p4625
I1949
sV\u7693
p4626
I1607
sV\u5414
p4627
I1
sV\u601c
p4628
I1277
sV\u849f
p4629
I1
sV\u5ba1
p4630
I28554
sV\u7a20
p4631
I325
sV\u57a9
p4632
I45
sV\u69ad
p4633
I109
sV\u8230
p4634
I24715
sV\u7fb9
p4635
I282
sV\u9e38
p4636
I9
sV\u903c
p4637
I3654
sV\u573e
p4638
I1749
sV\u8bc1
p4639
I77409
sV\u4ec3
p4640
I25
sV\u6942
p4641
I151
sV\u8dc5
p4642
I1
sV\u6346
p4643
I765
sV\u68d7
p4644
I28
sV\u4e58
p4645
I12691
sV\u62db
p4646
I53043
sV\u8d5a
p4647
I4274
sV\u7ee3
p4648
I900
sV\u5c64
p4649
I4
sV\u70e7
p4650
I5484
sV\u5668
p4651
I46019
sV\u956a
p4652
I1
sV\u6270
p4653
I5454
sV\u86f3
p4654
I10
sV\u51fd
p4655
I3422
sV\u707c
p4656
I408
sV\u94ff
p4657
I135
sV\u6709
p4658
I710994
sV\u988c
p4659
I247
sV\u5192
p4660
I5959
sV\u6b96
p4661
I3671
sV\u679e
p4662
I30
sV\u73a6
p4663
I3
sV\u6c2f
p4664
I556
sV\u6633
p4665
I2
sV\u7837
p4666
I89
sV\u5eb8
p4667
I2334
sV\u723b
p4668
I9
sV\u6cc4
p4669
I2607
sV\u66c8
p4670
I1
sV\u5351
p4671
I1445
sV\u72d0
p4672
I20925
sV\u5555
p4673
I58
sV\u615d
p4674
I4
sV\u80dc
p4675
I30683
sV\u9ae0
p4676
I1
sV\u53e6
p4677
I33691
sV\u96e8
p4678
I8500
sV\u55ea
p4679
I121
sV\u6fee
p4680
I173
sV\u917d
p4681
I9
sV\u547f
p4682
I1
sV\u77fe
p4683
I47
sV\u6187
p4684
I1
sV\u8206
p4685
I1891
sV\u840a
p4686
I1
sV\u5310
p4687
I87
sV\u9012
p4688
I4571
sV\u5514
p4689
I57
sV\u7b20
p4690
I104
sV\u7728
p4691
I287
sV\u68ad
p4692
I776
sV\u62b1
p4693
I6102
sV\u64b5
p4694
I72
sV\u5a36
p4695
I933
sV\u7eb9
p4696
I1813
sV\u5c3a
p4697
I3860
sV\u70bd
p4698
I205
sV\u4fc3
p4699
I13492
sV\u6842
p4700
I2680
sV\u6246
p4701
I10
sV\u86c9
p4702
I16
sV\u644a
p4703
I2959
sV\u94d5
p4704
I1
sV\u4f58
p4705
I57
sV\u63db
p4706
I1
sV\u8c5a
p4707
I308
sV\u865e
p4708
I665
sV\u71e7
p4709
I57
sV\u5768
p4710
I65
sV\u8beb
p4711
I600
sV\u8def
p4712
I67652
sV\u87f3
p4713
I1
sV\u6574
p4714
I66056
sV\u93fb
p4715
I1
sV\u95ff
p4716
I12
sV\u8b80
p4717
I1
sV\u6c05
p4718
I6
sV\u8d84
p4719
I21
sV\u6609
p4720
I10
sV\u8788
p4721
I14
sV\u780d
p4722
I1294
sV\u5092
p4723
I1
sV\u669e
p4724
I1
sV\u72a6
p4725
I1
sV\u74aa
p4726
I1
sV\u80b2
p4727
I65214
sV\u9ab6
p4728
I62
sV\u51bc
p4729
I36
sV\u96be
p4730
I54988
sV\u6bc0
p4731
I4
sV\u6dc4
p4732
I237
sV\u9b4b
p4733
I1
sV\u584d
p4734
I3
sV\u5251
p4735
I4327
sV\u73d0
p4736
I33
sV\u9753
p4737
I710
sV\u5455
p4738
I716
sV\u75d4
p4739
I249
sV\u8fd8
p4740
I166565
sV\u54ea
p4741
I17691
sV\u8475
p4742
I293
sV\u9e79
p4743
I2
sV\u537b
p4744
I5
sV\u7cfa
p4745
I1
sV\u907d
p4746
I41
sV\u76fe
p4747
I6439
sV\u6883
p4748
I2
sV\u6687
p4749
I665
sV\u5e0c
p4750
I27549
sV\u5410
p4751
I2585
sV\u829f
p4752
I5
sV\u5ba5
p4753
I21
sV\u96a7
p4754
I371
sV\u8e2c
p4755
I2
sV\u8234
p4756
I3
sV\u79b9
p4757
I676
sV\u77bd
p4758
I8
sV\u963c
p4759
I1
sV\u8bc5
p4760
I164
sV\u81c9
p4761
I1
sV\u5ccb
p4762
I44
sV\u794e
p4763
I82
sV\u7752
p4764
I4
sV\u6ed7
p4765
I2
sV\u8d56
p4766
I5035
sV\u8b5a
p4767
I1
sV\u62df
p4768
I8363
sV\u5c60
p4769
I1319
sV\u9566
p4770
I1
sV\u936a
p4771
I5
sV\u4fed
p4772
I801
sV\u80f3
p4773
I379
sV\u59f9
p4774
I26
sV\u57fd
p4775
I6
sV\u767c
p4776
I13
sV\u6d01
p4777
I6565
sV\u4f82
p4778
I5
sV\u6109
p4779
I1659
sV\u8088
p4780
I3
sV\u7f0d
p4781
I3
sV\u7511
p4782
I28
sV\u9490
p4783
I2
sV\u5792
p4784
I1067
sV\u7315
p4785
I128
sV\u6d96
p4786
I1
sV\u8919
p4787
I4
sV\u6b9a
p4788
I54
sV\u619e
p4789
I1
sV\u5627
p4790
I43
sV\u4eac
p4791
I74890
sV\u6a2f
p4792
I20
sV\u6033
p4793
I4
sV\u56bc
p4794
I600
sV\u723f
p4795
I6
sV\u7ecc
p4796
I60
sV\u9053
p4797
I111131
sV\u5355
p4798
I71463
sV\u6959
p4799
I1
sV\u88d8
p4800
I158
sV\u7d61
p4801
I2
sV\u7b65
p4802
I1
sV\u55e6
p4803
I214
sV\u90e8
p4804
I204442
sV\u53ea
p4805
I95906
sV\u8f6d
p4806
I12
sV\u5e77
p4807
I1
sV\u9979
p4808
I1
sV\u547b
p4809
I181
sV\u527f
p4810
I570
sV\u6787
p4811
I48
sV\u8406
p4812
I5
sV\u820a
p4813
I2
sV\u5510
p4814
I7532
sV\u9612
p4815
I4
sV\u8f97
p4816
I318
sV\u859b
p4817
I991
sV\u7d20
p4818
I38150
sV\u7b24
p4819
I6
sV\u50a9
p4820
I32
sV\u62b5
p4821
I8042
sV\u8334
p4822
I57
sV\u78b9
p4823
I2
sV\u503e
p4824
I7258
sV\u8cc1
p4825
I1
sV\u6446
p4826
I6097
sV\u9ecd
p4827
I15
sV\u7652
p4828
I1
sV\u92d5
p4829
I14
sV\u65db
p4830
I1
sV\u805e
p4831
I1
sV\u79e3
p4832
I64
sV\u5b64
p4833
I3423
sV\u77e7
p4834
I3
sV\u5168
p4835
I175061
sV\u8bef
p4836
I16364
sV\u6570
p4837
I117721
sV\u81f3
p4838
I79060
sV\u6374
p4839
I2
sV\u58f9
p4840
I132
sV\u7978
p4841
I2155
sV\u95fb
p4842
I18191
sV\u56fd
p4843
I598521
sV\u777c
p4844
I1
sV\u4e82
p4845
I6
sV\u8188
p4846
I37
sV\u9f8c
p4847
I61
sV\u9394
p4848
I1
sV\u4f17
p4849
I39073
sV\u6c96
p4850
I10
sV\u7ea2
p4851
I30336
sV\u4fac
p4852
I78
sV\u88ae
p4853
I1
sV\u9cb6
p4854
I69
sV\u753b
p4855
I12478
sV\u9aba
p4856
I9
sV\u733f
p4857
I465
sV\u90be
p4858
I1
sV\u6dc0
p4859
I1937
sV\u8747
p4860
I271
sV\u61c8
p4861
I1023
sV\u7fcc
p4862
I170
sV\u9b4f
p4863
I3335
sV\u5451
p4864
I1
sV\u665d
p4865
I1
sV\u87dc
p4866
I1
sV\u54e6
p4867
I824
sV\u8e6d
p4868
I361
sV\u68ee
p4869
I10417
sV\u8471
p4870
I735
sV\u66f2
p4871
I8958
sV\u5f77
p4872
I170
sV\u9879
p4873
I60149
sV\u557b
p4874
I87
sV\u7afa
p4875
I389
sV\u967d
p4876
I4
sV\u537f
p4877
I1339
sV\u4e00
p4878
I971579
sV\u6487
p4879
I389
sV\u810a
p4880
I1037
sV\u788f
p4881
I1
sV\u9512
p4882
I10
sV\u5014
p4883
I170
sV\u6a18
p4884
I10
sV\u641c
p4885
I34727
sV\u809f
p4886
I19
sV\u5fa1
p4887
I6150
sV\u7e20
p4888
I4
sV\u9aa3
p4889
I1
sV\u59a5
p4890
I2432
sV\u94a7
p4891
I546
sV\u53a9
p4892
I36
sV\u7228
p4893
I40
sV\u8c2c
p4894
I536
sV\u593a
p4895
I9358
sV\u75bd
p4896
I71
sV\u533e
p4897
I208
sV\u8fc1
p4898
I4569
sV\u89c5
p4899
I564
sV\u6746
p4900
I3285
sV\u614a
p4901
I7
sV\u6cd7
p4902
I117
sV\u66db
p4903
I1
sV\u60df
p4904
I3452
sV\u835e
p4905
I76
sV\u7ae3
p4906
I416
sV\u916a
p4907
I337
sV\u6670
p4908
I3317
sV\u5bf9
p4909
I340626
sV\u7a78
p4910
I1
sV\u96fb
p4911
I7
sV\u55fd
p4912
I854
sV\u90ff
p4913
I2
sV\u6905
p4914
I3651
sV\u8884
p4915
I107
sV\u6309
p4916
I37473
sV\u8288
p4917
I22
sV\u7d0d
p4918
I19
sV\u9690
p4919
I9477
sV\u7115
p4920
I790
sV\u5a23
p4921
I62
sV\u5427
p4922
I14537
sV\u6e2b
p4923
I1
sV\u8bae
p4924
I73582
sV\u6233
p4925
I288
sV\u7c37
p4926
I1
sV\u5ab8
p4927
I5
sV\u68c4
p4928
I1
sV\u62c8
p4929
I123
sV\u9e4b
p4930
I9
sV\u7ccc
p4931
I33
sV\u5751
p4932
I1378
sV\u76d0
p4933
I2736
sV\u5155
p4934
I8
sV\u6b59
p4935
I51
sV\u655d
p4936
I91
sV\u7f61
p4937
I62
sV\u9ee0
p4938
I55
sV\u5de2
p4939
I1462
sV\u7965
p4940
I2922
sV\u8d6d
p4941
I43
sV\u567b
p4942
I75
sV\u507f
p4943
I9885
sV\u73fe
p4944
I9
sV\u6b83
p4945
I219
sV\u8c02
p4946
I3
sV\u6587
p4947
I127959
sV\u8606
p4948
I1
sV\u798f
p4949
I26414
sV\u7393
p4950
I2
sV\u7f20
p4951
I1416
sV\u52a9
p4952
I36185
sV\u6cad
p4953
I42
sV\u8d2c
p4954
I1087
sV\u5e36
p4955
I5
sV\u953c
p4956
I2
sV\u6c42
p4957
I80061
sV\u88c5
p4958
I52502
sV\u9ccd
p4959
I103
sV\u7a4e
p4960
I1
sV\u75e7
p4961
I79
sV\u8feb
p4962
I7861
sV\u6d6c
p4963
I2
sV\u89ef
p4964
I4
sV\u6770
p4965
I7508
sV\u97fb
p4966
I2
sV\u54fd
p4967
I75
sV\u8f80
p4968
I1
sV\u6805
p4969
I591
sV\u5492
p4970
I463
sV\u9194
p4971
I1
sV\u6e96
p4972
I1
sV\u841d
p4973
I1227
sV\u9e21
p4974
I5708
sV\u7ca2
p4975
I1
sV\u5527
p4976
I91
sV\u6f2b
p4977
I6398
sV\u84b2
p4978
I476
sV\u5bb8
p4979
I65
sV\u6fc0
p4980
I24859
sV\u5055
p4981
I120
sV\u71d4
p4982
I4
sV\u4ed6
p4983
I268462
sV\u6a59
p4984
I446
sV\u8bd8
p4985
I83
sV\u85dc
p4986
I49
sV\u7e61
p4987
I1
sV\u7269
p4988
I80580
sV\u8c6d
p4989
I1
sV\u8671
p4990
I48
sV\u7ef6
p4991
I42
sV\u9a79
p4992
I115
sV\u577b
p4993
I8
sV\u78fa
p4994
I288
sV\u72fe
p4995
I1
sV\u7483
p4996
I2523
sV\u5c08
p4997
I1
sV\u6c93
p4998
I230
sV\u4e14
p4999
I44566
sV\u5599
p5000
I51
sV\u989b
p5001
I15
sV\u5b9d
p5002
I22821
sV\u7a1c
p5003
I4
sV\u9e9f
p5004
I726
sV\u6020
p5005
I783
sV\u6624
p5006
I1
sV\u6c28
p5007
I1243
sV\u552e
p5008
I49537
sV\u5b32
p5009
I2
sV\u65b9
p5010
I231772
sV\u8438
p5011
I58
sV\u6bbd
p5012
I1
sV\u7946
p5013
I5
sV\u9dc9
p5014
I1
sV\u654e
p5015
I1
sV\u89d1
p5016
I217
sV\u8fd5
p5017
I4
sV\u72d7
p5018
I8158
sV\u9156
p5019
I1
sV\u5458
p5020
I138632
sV\u975a
p5021
I2
sV\u7edf
p5022
I86175
sV\u8966
p5023
I4
sV\u90eb
p5024
I52
sV\u8f6a
p5025
I2
sV\u53ed
p5026
I705
sV\u96ef
p5027
I578
sV\u5ff5
p5028
I27232
sV\u82f7
p5029
I250
sV\u6478
p5030
I3406
sV\u6a7c
p5031
I14
sV\u9080
p5032
I4147
sV\u5382
p5033
I28761
sV\u7705
p5034
I1
sV\u5986
p5035
I2735
sV\u9c88
p5036
I11
sV\u5f8a
p5037
I561
sV\u6f15
p5038
I121
sV\u5217
p5039
I37182
sV\u9519
p5040
I21391
sV\u63a2
p5041
I12397
sV\u8725
p5042
I86
sV\u8d29
p5043
I1338
sV\u52ac
p5044
I6
sV\u6237
p5045
I41534
sV\u87ba
p5046
I1232
sV\u8dbe
p5047
I458
sV\u5141
p5048
I4651
sV\u70c0
p5049
I2
sV\u7cc8
p5050
I1
sV\u804b
p5051
I704
sV\u62cc
p5052
I545
sV\u864f
p5053
I676
sV\u68d0
p5054
I1
sV\u4f55
p5055
I51408
sV\u6ed4
p5056
I576
sV\u51d6
p5057
I2
sV\u7559
p5058
I24488
sV\u57da
p5059
I11
sV\u7b5d
p5060
I331
sV\u5dde
p5061
I39080
sV\u80e0
p5062
I2
sV\u6765
p5063
I321482
sV\u86e4
p5064
I119
sV\u6d69
p5065
I2627
sV\u8ce8
p5066
I1
sV\u4fea
p5067
I63
sV\u9971
p5068
I2863
sV\u61f6
p5069
I1
sV\u8579
p5070
I2
sV\u7583
p5071
I18
sV\u5704
p5072
I23
sV\u9806
p5073
I2
sV\u618b
p5074
I486
sV\u9e0a
p5075
I1
sV\u678f
p5076
I1
sV\u840e
p5077
I874
sV\u6d93
p5078
I77
sV\u5499
p5079
I161
sV\u7518
p5080
I4894
sV\u9f9f
p5081
I675
sV\u6120
p5082
I29
sV\u8ba7
p5083
I46
sV\u542e
p5084
I127
sV\u78b1
p5085
I998
sV\u5a32
p5086
I82
sV\u7eb5
p5087
I4842
sV\u90c1
p5088
I3597
sV\u96c5
p5089
I12381
sV\u5bc7
p5090
I658
sV\u82cd
p5091
I1429
sV\u5b5c
p5092
I487
sV\u7fdf
p5093
I320
sV\u736c
p5094
I5
sV\u7f74
p5095
I6
sV\u6578
p5096
I10
sV\u6b7c
p5097
I2008
sV\u5e8a
p5098
I9155
sV\u620d
p5099
I196
sV\u6811
p5100
I10047
sV\u8f94
p5101
I16
sV\u5317
p5102
I95652
sV\u7096
p5103
I303
sV\u5f1f
p5104
I6807
sV\u7c9e
p5105
I1
sV\u62a2
p5106
I9157
sV\u68a6
p5107
I9639
sV\u8c29
p5108
I114
sV\u6eaa
p5109
I1630
sV\u772f
p5110
I347
sV\u94ae
p5111
I595
sV\u86ba
p5112
I25
sV\u5041
p5113
I2
sV\u9b47
p5114
I86
sV\u5c49
p5115
I184
sV\u814b
p5116
I253
sV\u69d0
p5117
I258
sV\u8d53
p5118
I66
sV\u50d6
p5119
I30
sV\u7459
p5120
I123
sV\u95d8
p5121
I1
sV\u56da
p5122
I584
sV\u6c69
p5123
I76
sV\u8de8
p5124
I7444
sV\u516b
p5125
I21907
sV\u4eea
p5126
I9112
sV\u576f
p5127
I109
sV\u74ee
p5128
I118
sV\u60f6
p5129
I528
sV\u4f7f
p5130
I96567
sV\u6cfe
p5131
I197
sV\u5200
p5132
I5259
sV\u9102
p5133
I644
sV\u5404
p5134
I82563
sV\u7887
p5135
I11
sV\u9b06
p5136
I1
sV\u5e08
p5137
I70378
sV\u8912
p5138
I363
sV\u9097
p5139
I10
sV\u7618
p5140
I54
sV\u9a9b
p5141
I139
sV\u781c
p5142
I1
sV\u9c9f
p5143
I15
sV\u86a3
p5144
I37
sV\u6424
p5145
I3
sV\u4fa9
p5146
I38
sV\u572e
p5147
I5
sV\u7bb1
p5148
I6973
sV\u67b9
p5149
I5
sV\u8638
p5150
I150
sV\u883c
p5151
I2
sV\u4f3e
p5152
I1
sV\u58c7
p5153
I1
sV\u7b46
p5154
I7
sV\u674e
p5155
I32217
sV\u8bd1
p5156
I6130
sV\u4ed3
p5157
I2522
sV\u5658
p5158
I5
sV\u7cdf
p5159
I1645
sV\u8b66
p5160
I18920
sV\u51ed
p5161
I8057
sV\u94ef
p5162
I9
sV\u7a70
p5163
I9
sV\u5df5
p5164
I1
sV\u7c74
p5165
I1
sV\u6678
p5166
I1
sV\u7301
p5167
I8
sV\u9280
p5168
I5
sV\u7f09
p5169
I376
sV\u9e88
p5170
I9
sV\u610d
p5171
I43
sV\u808c
p5172
I4871
sV\u8c94
p5173
I32
sV\u5017
p5174
I1
sV\u7396
p5175
I41
sV\u5a1b
p5176
I4
sV\u759a
p5177
I365
sV\u7f9e
p5178
I1289
sV\u6daa
p5179
I190
sV\u50ac
p5180
I1857
sV\u742f
p5181
I5
sV\u97ae
p5182
I15
sV\u8fbe
p5183
I89138
sV\u5341
p5184
I74113
sV\u9847
p5185
I1
sV\u7ec8
p5186
I34633
sV\u824b
p5187
I2
sV\u8e53
p5188
I2
sV\u6cd4
p5189
I31
sV\u53d6
p5190
I73685
sV\u795d
p5191
I3628
sV\u6361
p5192
I566
sV\u546f
p5193
I2
sV\u77ee
p5194
I685
sV\u5e73
p5195
I107025
sV\u63f6
p5196
I27
sV\u65fa
p5197
I3426
sV\u5300
p5198
I881
sV\u9002
p5199
I33869
sV\u7987
p5200
I2
sV\u5f08
p5201
I619
sV\u6320
p5202
I555
sV\u87a3
p5203
I28
sV\u4ea9
p5204
I1290
sV\u70ad
p5205
I1702
sV\u66b9
p5206
I62
sV\u4e3e
p5207
I34135
sV\u57c3
p5208
I7625
sV\u94c5
p5209
I1160
sV\u7a46
p5210
I2372
sV\u9ec9
p5211
I2
sV\u7c4a
p5212
I2
sV\u80cd
p5213
I78
sV\u9e5e
p5214
I197
sV\u8a66
p5215
I1
sV\u8c6a
p5216
I9708
sV\u50ed
p5217
I35
sV\u95ef
p5218
I1635
sV\u5af1
p5219
I14
sV\u8bfb
p5220
I29979
sV\u697c
p5221
I14937
sV\u7405
p5222
I476
sV\u9f88
p5223
I251
sV\u600d
p5224
I5
sV\u6a11
p5225
I12
sV\u8d94
p5226
I18
sV\u9619
p5227
I139
sV\u5b1b
p5228
I2
sV\u8221
p5229
I1
sV\u8425
p5230
I60436
sV\u8e29
p5231
I1194
sV\u732b
p5232
I2905
sV\u6caa
p5233
I3700
sV\u51ac
p5234
I5454
sV\u5bb0
p5235
I1225
sV\u7f33
p5236
I1
sV\u6b3b
p5237
I3
sV\u84ba
p5238
I3
sV\u6d3f
p5239
I1
sV\u5241
p5240
I77
sV\u73c0
p5241
I647
sV\u75c4
p5242
I13
sV\u5e49
p5243
I1
sV\u6bd0
p5244
I1
sV\u52d6
p5245
I37
sV\u54da
p5246
I12
sV\u785d
p5247
I889
sV\u83e0
p5248
I516
sV\u85e4
p5249
I889
sV\u6e69
p5250
I1
sV\u8fe8
p5251
I11
sV\u536b
p5252
I38480
sV\u906d
p5253
I10103
sV\u76ee
p5254
I134643
sV\u9a71
p5255
I6576
sV\u78f2
p5256
I2
sV\u62f6
p5257
I1
sV\u8679
p5258
I5411
sV\u64fa
p5259
I2
sV\u887d
p5260
I20
sV\u6893
p5261
I180
sV\u9697
p5262
I36
sV\u5199
p5263
I27642
sV\u9c9b
p5264
I6
sV\u9a9f
p5265
I15
sV\u77ad
p5266
I384
sV\u8038
p5267
I742
sV\u614e
p5268
I3954
sV\u8dd1
p5269
I9934
sV\u8bd5
p5270
I88103
sV\u76d7
p5271
I4219
sV\u9556
p5272
I256
sV\u7adf
p5273
I13656
sV\u8d66
p5274
I278
sV\u94eb
p5275
I2
sV\u57ed
p5276
I13
sV\u5df1
p5277
I95970
sV\u7a74
p5278
I1643
sV\u6078
p5279
I53
sV\u5782
p5280
I3274
sV\u9888
p5281
I3706
sV\u670d
p5282
I66112
sV\u868c
p5283
I250
sV\u6d11
p5284
I7
sV\u7596
p5285
I19
sV\u9119
p5286
I447
sV\u739a
p5287
I3
sV\u5a1f
p5288
I770
sV\u8521
p5289
I2642
sV\u67a2
p5290
I1084
sV\u4e27
p5291
I3596
sV\u6da6
p5292
I18214
sV\u6baa
p5293
I2
sV\u91ae
p5294
I8
sV\u83ba
p5295
I252
sV\u5541
p5296
I3
sV\u5345
p5297
I59
sV\u72c4
p5298
I461
sV\u9e47
p5299
I5
sV\u5949
p5300
I3877
sV\u66cc
p5301
I3
sV\u824f
p5302
I62
sV\u6cd0
p5303
I1
sV\u8853
p5304
I4
sV\u55d6
p5305
I76
sV\u7159
p5306
I2
sV\u9edc
p5307
I70
sV\u84e0
p5308
I2
sV\u6365
p5309
I3
sV\u82e4
p5310
I2
sV\u88e8
p5311
I143
sV\u526f
p5312
I21877
sV\u71ee
p5313
I74
sV\u65f6
p5314
I357430
sV\u8179
p5315
I4558
sV\u8f7d
p5316
I17179
sV\u9602
p5317
I168
sV\u658b
p5318
I766
sV\u638f
p5319
I1339
sV\u5099
p5320
I2
sV\u7118
p5321
I295
sV\u7f1c
p5322
I117
sV\u6520
p5323
I2
sV\u6324
p5324
I3623
sV\u502e
p5325
I1
sV\u7cb1
p5326
I112
sV\u5e32
p5327
I2
sV\u8138
p5328
I9142
sV\u94c1
p5329
I18002
sV\u51c3
p5330
I2
sV\u7642
p5331
I7
sV\u77d7
p5332
I219
sV\u8662
p5333
I20
sV\u95eb
p5334
I378
sV\u56ed
p5335
I19410
sV\u776c
p5336
I179
sV\u8dfb
p5337
I541
sV\u4efd
p5338
I57277
sV\u6f7c
p5339
I139
sV\u8bff
p5340
I137
sV\u9580
p5341
I4
sV\u7809
p5342
I3
sV\u9988
p5343
I1333
sV\u6c11
p5344
I115692
sV\u4e92
p5345
I20182
sV\u9019
p5346
I18
sV\u5d1b
p5347
I1533
sV\u789e
p5348
I2
sV\u66a2
p5349
I2
sV\u4f27
p5350
I12
sV\u6ca6
p5351
I923
sV\u752b
p5352
I1090
sV\u90ae
p5353
I5894
sV\u5bb4
p5354
I2007
sV\u6d3b
p5355
I78645
sV\u6b3f
p5356
I1
sV\u9143
p5357
I9
sV\u834f
p5358
I28
sV\u6bd4
p5359
I165326
sV\u54d6
p5360
I1
sV\u58de
p5361
I1
sV\u6869
p5362
I606
sV\u556b
p5363
I9
sV\u536f
p5364
I189
sV\u5973
p5365
I76811
sV\u7ef2
p5366
I4
sV\u5600
p5367
I216
sV\u7283
p5368
I1
sV\u9502
p5369
I244
sV\u5004
p5370
I2
sV\u5a08
p5371
I72
sV\u990a
p5372
I2
sV\u830e
p5373
I1272
sV\u4e10
p5374
I226
sV\u9497
p5375
I140
sV\u5d9d
p5376
I4
sV\u989f
p5377
I5
sV\u6620
p5378
I8586
sV\u6a28
p5379
I25
sV\u532e
p5380
I493
sV\u8238
p5381
I28
sV\u97c1
p5382
I1
sV\u52c3
p5383
I3292
sV\u5cc7
p5384
I17
sV\u634e
p5385
I121
sV\u8fd1
p5386
I65749
sV\u6d52
p5387
I167
sV\u9756
p5388
I1404
sV\u7edb
p5389
I101
sV\u915a
p5390
I243
sV\u62e3
p5391
I352
sV\u8f66
p5392
I243676
sV\u90ef
p5393
I16
sV\u5ff1
p5394
I192
sV\u59f5
p5395
I4
sV\u7701
p5396
I45601
sV\u5582
p5397
I940
sV\u9084
p5398
I5
sV\u9a88
p5399
I14
sV\u598a
p5400
I807
sV\u848c
p5401
I6
sV\u8e90
p5402
I1
sV\u5417
p5403
I16628
sV\u5e1b
p5404
I153
sV\u8721
p5405
I763
sV\u762b
p5406
I751
sV\u54ac
p5407
I1515
sV\u7a33
p5408
I16475
sV\u81ba
p5409
I198
sV\u8bbe
p5410
I82223
sV\u5145
p5411
I26499
sV\u4f51
p5412
I598
sV\u9cdc
p5413
I2
sV\u5bde
p5414
I829
sV\u6761
p5415
I54688
sV\u80e4
p5416
I1003
sV\u4fe6
p5417
I7
sV\u566b
p5418
I24
sV\u956d
p5419
I77
sV\u73ee
p5420
I15
sV\u9975
p5421
I274
sV\u5104
p5422
I14
sV\u678b
p5423
I42
sV\u4f10
p5424
I3103
sV\u6b93
p5425
I47
sV\u8c12
p5426
I113
sV\u9f9b
p5427
I138
sV\u6124
p5428
I2441
sV\u74ad
p5429
I1
sV\u952c
p5430
I1
sV\u522e
p5431
I1382
sV\u7eb1
p5432
I1026
sV\u62b9
p5433
I1463
sV\u8338
p5434
I145
sV\u6cbd
p5435
I582
sV\u8d3c
p5436
I1506
sV\u96c1
p5437
I656
sV\u53c3
p5438
I2
sV\u90c5
p5439
I1488
sV\u84cd
p5440
I14
sV\u624e
p5441
I5525
sV\u88d5
p5442
I2846
sV\u7fdb
p5443
I2
sV\u79df
p5444
I11089
sV\u63e3
p5445
I580
sV\u8e66
p5446
I359
sV\u97eb
p5447
I13
sV\u54ed
p5448
I2842
sV\u756c
p5449
I2
sV\u7601
p5450
I92
sV\u9780
p5451
I1
sV\u5482
p5452
I42
sV\u5e86
p5453
I14626
sV\u6e11
p5454
I7
sV\u8f90
p5455
I1471
sV\u7696
p5456
I603
sV\u5f1b
p5457
I569
sV\u591f
p5458
I35003
sV\u6ea6
p5459
I13
sV\u712f
p5460
I70
sV\u92ae
p5461
I64
sV\u7b33
p5462
I32
sV\u9cb2
p5463
I52
sV\u86b6
p5464
I5
sV\u80ba
p5465
I2895
sV\u693f
p5466
I85
sV\u5641
p5467
I3
sV\u5a49
p5468
I1001
sV\u65cc
p5469
I95
sV\u8b53
p5470
I1
sV\u7259
p5471
I11227
sV\u50da
p5472
I926
sV\u6661
p5473
I2
sV\u87e0
p5474
I78
sV\u8be8
p5475
I34
sV\u576b
p5476
I1
sV\u72ee
p5477
I2361
sV\u9e71
p5478
I1
sV\u5b73
p5479
I55
sV\u9875
p5480
I39070
sV\u8279
p5481
I5
sV\u4f7b
p5482
I35
sV\u60fa
p5483
I217
sV\u5800
p5484
I10
sV\u5408
p5485
I160384
sV\u6e8f
p5486
I20
sV\u9a97
p5487
I4392
sV\u5d99
p5488
I49
sV\u909b
p5489
I139
sV\u539d
p5490
I23
sV\u4fa5
p5491
I319
sV\u6e24
p5492
I282
sV\u82a7
p5493
I1
sV\u7bad
p5494
I3934
sV\u5d2e
p5495
I25
sV\u71b1
p5496
I5
sV\u77b5
p5497
I1
sV\u9634
p5498
I9274
sV\u4f3a
p5499
I393
sV\u7b42
p5500
I1
sV\u52c7
p5501
I7536
sV\u8bcd
p5502
I17417
sV\u4ecf
p5503
I2
sV\u6d4e
p5504
I47830
sV\u70db
p5505
I655
sV\u525c
p5506
I31
sV\u76df
p5507
I11226
sV\u955e
p5508
I27
sV\u6ce3
p5509
I568
sV\u62e7
p5510
I158
sV\u8166
p5511
I1
sV\u9eef
p5512
I459
sV\u7070
p5513
I3729
sV\u94f3
p5514
I27
sV\u57f5
p5515
I4
sV\u627c
p5516
I582
sV\u7901
p5517
I541
sV\u9880
p5518
I32
sV\u7f05
p5519
I1245
sV\u9488
p5520
I15234
sV\u8a8c
p5521
I2
sV\u6715
p5522
I609
sV\u7f9a
p5523
I343
sV\u561f
p5524
I201
sV\u8921
p5525
I9
sV\u67aa
p5526
I7576
sV\u7e2f
p5527
I29
sV\u7433
p5528
I5422
sV\u603b
p5529
I94648
sV\u8fba
p5530
I1
sV\u5941
p5531
I7
sV\u7ec4
p5532
I62863
sV\u5549
p5533
I29
sV\u7d59
p5534
I1
sV\u55de
p5535
I7
sV\u586b
p5536
I8521
sV\u9171
p5537
I815
sV\u5473
p5538
I19261
sV\u73f2
p5539
I36
sV\u837d
p5540
I16
sV\u5f04
p5541
I4398
sV\u7387
p5542
I52003
sV\u9006
p5543
I2622
sV\u960a
p5544
I14
sV\u8c0e
p5545
I1376
sV\u6593
p5546
I154
sV\u8212
p5547
I7460
sV\u5c99
p5548
I10
sV\u7d18
p5549
I2
sV\u919b
p5550
I343
sV\u529d
p5551
I2210
sV\u731c
p5552
I3007
sV\u979f
p5553
I1
sV\u8da3
p5554
I11417
sV\u4ea5
p5555
I894
sV\u7aad
p5556
I4
sV\u70b1
p5557
I1
sV\u6cb9
p5558
I34028
sV\u8d38
p5559
I9956
sV\u4e3a
p5560
I478921
sV\u62bd
p5561
I5902
sV\u833c
p5562
I2
sV\u7a42
p5563
I1
sV\u94c9
p5564
I146
sV\u764a
p5565
I2
sV\u4fcf
p5566
I636
sV\u6252
p5567
I271
sV\u5d58
p5568
I103
sV\u9e5a
p5569
I16
sV\u535c
p5570
I1773
sV\u77df
p5571
I1
sV\u945e
p5572
I1
sV\u8a62
p5573
I2
sV\u4f64
p5574
I129
sV\u50f1
p5575
I2
sV\u95f3
p5576
I29
sV\u56f5
p5577
I26
sV\u8bf7
p5578
I31644
sV\u6d78
p5579
I1415
sV\u81fb
p5580
I335
sV\u7801
p5581
I13711
sV\u9980
p5582
I91
sV\u9f84
p5583
I8850
sV\u7409
p5584
I433
sV\u6615
p5585
I363
sV\u5b17
p5586
I58
sV\u571f
p5587
I21229
sV\u749e
p5588
I179
sV\u8821
p5589
I75
sV\u6aa2
p5590
I1
sV\u60a6
p5591
I2905
sV\u5bac
p5592
I1
sV\u7f2f
p5593
I5
sV\u9cae
p5594
I7
sV\u51b0
p5595
I8018
sV\u7533
p5596
I17894
sV\u57b4
p5597
I5
sV\u6b37
p5598
I11
sV\u8eba
p5599
I1419
sV\u79c0
p5600
I13861
sV\u5e45
p5601
I18371
sV\u75c8
p5602
I19
sV\u67d4
p5603
I3179
sV\u725d
p5604
I11
sV\u54de
p5605
I2
sV\u6861
p5606
I22
sV\u8fe4
p5607
I64
sV\u6469
p5608
I8232
sV\u9a6d
p5609
I1833
sV\u72f2
p5610
I18
sV\u9675
p5611
I3378
sV\u8c79
p5612
I1886
sV\u827d
p5613
I8
sV\u5c04
p5614
I23659
sV\u5608
p5615
I159
sV\u6c8f
p5616
I34
sV\u8112
p5617
I8
sV\u9897
p5618
I2973
sV\u5f99
p5619
I452
sV\u949f
p5620
I19024
sV\u6c24
p5621
I43
sV\u6628
p5622
I17389
sV\u5132
p5623
I2
sV\u75b5
p5624
I201
sV\u6fb9
p5625
I43
sV\u61bd
p5626
I1
sV\u7942
p5627
I2
sV\u50c7
p5628
I3
sV\u89cd
p5629
I1
sV\u83d1
p5630
I4
sV\u85d5
p5631
I142
sV\u505c
p5632
I19956
sV\u975e
p5633
I69681
sV\u60e7
p5634
I2369
sV\u8366
p5635
I10
sV\u9aeb
p5636
I2
sV\u786c
p5637
I9912
sV\u53f1
p5638
I134
sV\u96f3
p5639
I189
sV\u55f5
p5640
I14
sV\u7474
p5641
I1
sV\u82fb
p5642
I154
sV\u607c
p5643
I1990
sV\u84ff
p5644
I16
sV\u9a80
p5645
I1
sV\u5982
p5646
I163927
sV\u7d05
p5647
I5
sV\u5386
p5648
I49686
sV\u7709
p5649
I2348
sV\u9688
p5650
I1
sV\u558a
p5651
I2925
sV\u690d
p5652
I6796
sV\u6311
p5653
I10628
sV\u9f19
p5654
I7
sV\u521b
p5655
I47304
sV\u541f
p5656
I646
sV\u8d25
p5657
I15530
sV\u7633
p5658
I2
sV\u54b4
p5659
I8
sV\u6837
p5660
I109319
sV\u8bb6
p5661
I876
sV\u4eb8
p5662
I1
sV\u8dba
p5663
I7
sV\u643f
p5664
I1
sV\u9e43
p5665
I211
sV\u9047
p5666
I18625
sV\u76c8
p5667
I6013
sV\u62d0
p5668
I891
sV\u8653
p5669
I5
sV\u9ed8
p5670
I6136
sV\u90dc
p5671
I249
sV\u6b61
p5672
I1
sV\u6d65
p5673
I1
sV\u996d
p5674
I12145
sV\u5c6f
p5675
I887
sV\u7fee
p5676
I7
sV\u9575
p5677
I1
sV\u9802
p5678
I2
sV\u5708
p5679
I6323
sV\u6b8b
p5680
I6479
sV\u8012
p5681
I13
sV\u9997
p5682
I4
sV\u5e99
p5683
I2900
sV\u7f18
p5684
I5147
sV\u711c
p5685
I51
sV\u6b20
p5686
I4221
sV\u8fa3
p5687
I1657
sV\u6728
p5688
I12321
sV\u5e2e
p5689
I17235
sV\u9534
p5690
I22
sV\u9ac1
p5691
I5
sV\u5fc3
p5692
I144424
sV\u9cc5
p5693
I29
sV\u51c7
p5694
I40
sV\u7246
p5695
I2
sV\u96c9
p5696
I116
sV\u6e4e
p5697
I68
sV\u82d1
p5698
I1012
sV\u6052
p5699
I3078
sV\u5f58
p5700
I39
sV\u515c
p5701
I597
sV\u8862
p5702
I140
sV\u97f3
p5703
I24057
sV\u7574
p5704
I843
sV\u6f78
p5705
I36
sV\u85ff
p5706
I26
sV\u4e8e
p5707
I263147
sV\u6211
p5708
I350399
sV\u7a96
p5709
I160
sV\u901d
p5710
I1331
sV\u68a2
p5711
I254
sV\u8c25
p5712
I129
sV\u8629
p5713
I18
sV\u7b2b
p5714
I37
sV\u7d2f
p5715
I10940
sV\u653f
p5716
I103499
sV\u7bc0
p5717
I1
sV\u5c45
p5718
I20542
sV\u5649
p5719
I2
sV\u69cc
p5720
I98
sV\u8d4f
p5721
I5687
sV\u63d0
p5722
I131442
sV\u5ad6
p5723
I331
sV\u91dc
p5724
I297
sV\u56de
p5725
I62543
sV\u6a61
p5726
I848
sV\u8be0
p5727
I479
sV\u8de4
p5728
I173
sV\u6669
p5729
I8
sV\u87e8
p5730
I9
sV\u5d6f
p5731
I15
sV\u7eee
p5732
I353
sV\u5773
p5733
I57
sV\u6cfa
p5734
I4
sV\u807d
p5735
I1
sV\u66fe
p5736
I29045
sV\u9f02
p5737
I1
sV\u5a04
p5738
I275
sV\u7687
p5739
I14500
sV\u9506
p5740
I58
sV\u8712
p5741
I207
sV\u9e97
p5742
I2
sV\u5999
p5743
I4262
sV\u7818
p5744
I6
sV\u949b
p5745
I865
sV\u86a7
p5746
I5
sV\u6028
p5747
I3512
sV\u9e2c
p5748
I18
sV\u592e
p5749
I16474
sV\u75b1
p5750
I188
sV\u863c
p5751
I6
sV\u7f42
p5752
I49
sV\u91c9
p5753
I155
sV\u5858
p5754
I1091
sV\u9b5a
p5755
I3
sV\u565c
p5756
I142
sV\u915e
p5757
I25
sV\u68e3
p5758
I201
sV\u66e7
p5759
I3
sV\u836a
p5760
I61
sV\u5fed
p5761
I2
sV\u9aef
p5762
I35
sV\u7470
p5763
I942
sV\u53f5
p5764
I45
sV\u7274
p5765
I1
sV\u5f82
p5766
I15
sV\u9a84
p5767
I1599
sV\u5586
p5768
I105
sV\u7109
p5769
I628
sV\u9088
p5770
I23
sV\u8490
p5771
I3
sV\u541b
p5772
I6312
sV\u8d21
p5773
I4814
sV\u8129
p5774
I4
sV\u63aa
p5775
I12051
sV\u8bba
p5776
I64526
sV\u623f
p5777
I36713
sV\u9647
p5778
I350
sV\u5149
p5779
I42877
sV\u70c8
p5780
I16348
sV\u4f4d
p5781
I125851
sV\u6ecc
p5782
I1
sV\u64d0
p5783
I2
sV\u62d4
p5784
I6215
sV\u98d8
p5785
I1928
sV\u6b65
p5786
I50488
sV\u6169
p5787
I1
sV\u80e8
p5788
I2
sV\u9375
p5789
I3
sV\u5d00
p5790
I2
sV\u7787
p5791
I3
sV\u5899
p5792
I5321
sV\u771c
p5793
I3
sV\u6b24
p5794
I32
sV\u7ead
p5795
I194
sV\u9f2c
p5796
I87
sV\u9530
p5797
I161
sV\u5632
p5798
I795
sV\u9ac5
p5799
I67
sV\u8ecd
p5800
I2
sV\u684e
p5801
I67
sV\u84d1
p5802
I14
sV\u6652
p5803
I1309
sV\u82d5
p5804
I9
sV\u5958
p5805
I100
sV\u75db
p5806
I13458
sV\u9a5a
p5807
I1
sV\u575c
p5808
I1
sV\u7570
p5809
I1
sV\u8ff7
p5810
I10691
sV\u6978
p5811
I17
sV\u85fb
p5812
I319
sV\u677c
p5813
I8
sV\u7a05
p5814
I1
sV\u5486
p5815
I129
sV\u6e0d
p5816
I187
sV\u6215
p5817
I33
sV\u5f17
p5818
I4486
sV\u551b
p5819
I3
sV\u961d
p5820
I3
sV\u8c21
p5821
I15
sV\u6ea2
p5822
I1483
sV\u7d2b
p5823
I2711
sV\u653b
p5824
I24772
sV\u80be
p5825
I3106
sV\u5c41
p5826
I1039
sV\u7bc4
p5827
I1
sV\u71c8
p5828
I1
sV\u8d4b
p5829
I2421
sV\u4e4d
p5830
I433
sV\u8153
p5831
I93
sV\u5ada
p5832
I1
sV\u6c61
p5833
I5178
sV\u6a65
p5834
I3
sV\u8be4
p5835
I46
sV\u6069
p5836
I8329
sV\u81e8
p5837
I3
sV\u5d6b
p5838
I3
sV\u9e6d
p5839
I240
sV\u5173
p5840
I175561
sV\u76f2
p5841
I2926
sV\u4f77
p5842
I1
sV\u6cf6
p5843
I4
sV\u867d
p5844
I27291
sV\u7a83
p5845
I1471
sV\u7487
p5846
I98
sV\u9706
p5847
I288
sV\u5208
p5848
I3
sV\u688f
p5849
I71
sV\u6293
p5850
I7677
sV\u5b99
p5851
I1713
sV\u969b
p5852
I3
sV\u559d
p5853
I7237
sV\u6e20
p5854
I5974
sV\u7dad
p5855
I4
sV\u71b5
p5856
I6
sV\u4f36
p5857
I209
sV\u65bd
p5858
I38511
sV\u843c
p5859
I21
sV\u7d42
p5860
I3
sV\u54c7
p5861
I358
sV\u4ecb
p5862
I29435
sV\u714a
p5863
I164
sV\u6b4e
p5864
I1
sV\u87d1
p5865
I67
sV\u7cd7
p5866
I28
sV\u76db
p5867
I12069
sV\u545c
p5868
I233
sV\u70df
p5869
I7540
sV\u4e60
p5870
I52054
sV\u8d62
p5871
I8328
sV\u98ef
p5872
I1
sV\u51f5
p5873
I1
sV\u7f01
p5874
I27
sV\u9e80
p5875
I4
sV\u5d82
p5876
I63
sV\u9884
p5877
I43893
sV\u5786
p5878
I6
sV\u8c8c
p5879
I3828
sV\u6115
p5880
I123
sV\u561b
p5881
I1821
sV\u799a
p5882
I2
sV\u951d
p5883
I5
sV\u501f
p5884
I15805
sV\u8925
p5885
I158
sV\u5cac
p5886
I33
sV\u782f
p5887
I1
sV\u9bae
p5888
I2
sV\u8fb6
p5889
I2
sV\u603f
p5890
I12
sV\u7ec0
p5891
I22
sV\u5349
p5892
I376
sV\u72c8
p5893
I164
sV\u8e4b
p5894
I130
sV\u6ccc
p5895
I3134
sV\u60d4
p5896
I1
sV\u5fd6
p5897
I41
sV\u9ad8
p5898
I231765
sV\u59da
p5899
I2635
sV\u94dc
p5900
I3735
sV\u88e4
p5901
I1639
sV\u6369
p5902
I3
sV\u5e6b
p5903
I1
sV\u586f
p5904
I1
sV\u7bee
p5905
I8758
sV\u9175
p5906
I365
sV\u69fa
p5907
I2
sV\u63fe
p5908
I2
sV\u5f00
p5909
I177417
sV\u9c02
p5910
I1
sV\u5904
p5911
I69056
sV\u9606
p5912
I38
sV\u5308
p5913
I2023
sV\u900a
p5914
I2830
sV\u549d
p5915
I21
sV\u751c
p5916
I2651
sV\u4ea1
p5917
I9791
sV\u6f20
p5918
I2904
sV\u8ba3
p5919
I41
sV\u6924
p5920
I14
sV\u6328
p5921
I1120
sV\u76b1
p5922
I881
sV\u9730
p5923
I26
sV\u5432
p5924
I11
sV\u9134
p5925
I1
sV\u4e36
p5926
I3
sV\u853c
p5927
I162
sV\u6452
p5928
I248
sV\u5b58
p5929
I40164
sV\u77db
p5930
I5361
sV\u555c
p5931
I41
sV\u71df
p5932
I7
sV\u4f60
p5933
I113472
sV\u8c62
p5934
I35
sV\u65e7
p5935
I10214
sV\u806a
p5936
I3071
sV\u5ced
p5937
I324
sV\u56f1
p5938
I148
sV\u50f5
p5939
I1095
sV\u7174
p5940
I2
sV\u8df7
p5941
I178
sV\u81ff
p5942
I1
sV\u9f80
p5943
I10
sV\u5c82
p5944
I1093
sV\u9984
p5945
I60
sV\u6015
p5946
I12053
sV\u9a19
p5947
I1
sV\u789a
p5948
I24
sV\u511f
p5949
I1
sV\u729e
p5950
I1
sV\u8e21
p5951
I1
sV\u6ca2
p5952
I21
sV\u7f2b
p5953
I6
sV\u7333
p5954
I1
sV\u94b2
p5955
I4
sV\u613f
p5956
I27412
sV\u82be
p5957
I13
sV\u7fc0
p5958
I37
sV\u9547
p5959
I10842
sV\u73c8
p5960
I71
sV\u6dcc
p5961
I264
sV\u67d0
p5962
I25652
sV\u8353
p5963
I6
sV\u61d4
p5964
I5
sV\u5ed6
p5965
I862
sV\u95dc
p5966
I2
sV\u52de
p5967
I1
sV\u6865
p5968
I8979
sV\u6269
p5969
I15758
sV\u5f6b
p5970
I1
sV\u5373
p5971
I43388
sV\u9075
p5972
I3627
sV\u8a79
p5973
I1716
sV\u68fa
p5974
I876
sV\u62fe
p5975
I1358
sV\u6000
p5976
I12063
sV\u8785
p5977
I14
sV\u568f
p5978
I177
sV\u9991
p5979
I8
sV\u8116
p5980
I713
sV\u6599
p5981
I35651
sV\u871a
p5982
I114
sV\u8d1e
p5983
I999
sV\u9322
p5984
I1
sV\u77a5
p5985
I104
sV\u5624
p5986
I17
sV\u80ab
p5987
I1
sV\u86af
p5988
I44
sV\u652e
p5989
I1
sV\u6b32
p5990
I8832
sV\u4fb5
p5991
I7262
sV\u7136
p5992
I129924
sV\u55b9
p5993
I28
sV\u773a
p5994
I300
sV\u5bbd
p5995
I10795
sV\u76cf
p5996
I262
sV\u6458
p5997
I3542
sV\u8bdd
p5998
I61646
sV\u4edf
p5999
I56
sV\u63ed
p6000
I4147
sV\u9176
p6001
I1091
sV\u75f9
p6002
I251
sV\u5478
p6003
I26
sV\u977a
p6004
I14
sV\u8403
p6005
I355
sV\u6382
p6006
I150
sV\u8a07
p6007
I16
sV\u6986
p6008
I262
sV\u900b
p6009
I17
sV\u530d
p6010
I77
sV\u960f
p6011
I25
sV\u7b92
p6012
I1
sV\u5f15
p6013
I45495
sV\u6217
p6014
I18
sV\u8a9c
p6015
I9
sV\u6e1f
p6016
I1
sV\u53a2
p6017
I3969
sV\u9ca8
p6018
I575
sV\u5faa
p6019
I4606
sV\u832d
p6020
I18
sV\u62ac
p6021
I2303
sV\u68b0
p6022
I5197
sV\u6eb4
p6023
I100
sV\u5237
p6024
I3314
sV\u9539
p6025
I57
sV\u6745
p6026
I6
sV\u89c6
p6027
I51171
sV\u6d49
p6028
I1
sV\u734d
p6029
I1
sV\u7f55
p6030
I1534
sV\u885b
p6031
I1
sV\u67da
p6032
I109
sV\u8e5f
p6033
I2
sV\u6dde
p6034
I102
sV\u73e2
p6035
I1
sV\u79e6
p6036
I4227
sV\u5d69
p6037
I1283
sV\u606b
p6038
I41
sV\u666f
p6039
I31685
sV\u88f0
p6040
I4
sV\u51f6
p6041
I1708
sV\u94f8
p6042
I1038
sV\u57fa
p6043
I91652
sV\u5dfe
p6044
I1313
sV\u6100
p6045
I4
sV\u8c89
p6046
I16
sV\u928d
p6047
I1
sV\u9891
p6048
I12574
sV\u9e95
p6049
I1
sV\u7f14
p6050
I982
sV\u6499
p6051
I3
sV\u9e2a
p6052
I16
sV\u87af
p6053
I17
sV\u8db3
p6054
I45007
sV\u4eb5
p6055
I192
sV\u65c3
p6056
I21
sV\u8d48
p6057
I81
sV\u934c
p6058
I2
sV\u544e
p6059
I19
sV\u4fdf
p6060
I63
sV\u90e1
p6061
I843
sV\u55e3
p6062
I283
sV\u62ed
p6063
I399
sV\u68f1
p6064
I397
sV\u8a72
p6065
I1
sV\u4f74
p6066
I6
sV\u5578
p6067
I1294
sV\u7afd
p6068
I51
sV\u8b07
p6069
I23
sV\u6886
p6070
I39
sV\u520d
p6071
I36
sV\u970f
p6072
I82
sV\u748e
p6073
I3
sV\u5811
p6074
I90
sV\u7a92
p6075
I299
sV\u5e15
p6076
I4881
sV\u7523
p6077
I22
sV\u52a2
p6078
I22
sV\u63ac
p6079
I72
sV\u8e35
p6080
I329
sV\u9439
p6081
I3
sV\u75b8
p6082
I122
sV\u6041
p6083
I6
sV\u88c6
p6084
I99
sV\u6c49
p6085
I22820
sV\u8eca
p6086
I7
sV\u724d
p6087
I103
sV\u53cc
p6088
I32348
sV\u94ce
p6089
I144
sV\u59d0
p6090
I9035
sV\u66da
p6091
I2
sV\u8f5f
p6092
I1
sV\u6cde
p6093
I124
sV\u9563
p6094
I76
sV\u7eea
p6095
I6507
sV\u676f
p6096
I14567
sV\u8ff4
p6097
I1
sV\u95f8
p6098
I553
sV\u56fa
p6099
I14348
sV\u6200
p6100
I1
sV\u8f89
p6101
I5632
sV\u918d
p6102
I21
sV\u548f
p6103
I350
sV\u5e93
p6104
I15369
sV\u851a
p6105
I567
sV\u73a1
p6106
I2
sV\u5220
p6107
I984
sV\u9122
p6108
I42
sV\u75a5
p6109
I41
sV\u7fa9
p6110
I1
sV\u82ab
p6111
I30
sV\u84af
p6112
I75
sV\u672e
p6113
I10
sV\u753a
p6114
I145
sV\u8e48
p6115
I1176
sV\u574e
p6116
I1464
sV\u7ed3
p6117
I79057
sV\u93e1
p6118
I1
sV\u7260
p6119
I17
sV\u876e
p6120
I12
sV\u6df5
p6121
I1
sV\u79fd
p6122
I274
sV\u6b86
p6123
I302
sV\u4f09
p6124
I32
sV\u778e
p6125
I457
sV\u889c
p6126
I559
sV\u6c1f
p6127
I632
sV\u51a2
p6128
I131
sV\u94a4
p6129
I60
sV\u7827
p6130
I20
sV\u5ba6
p6131
I323
sV\u60ac
p6132
I4638
sV\u8d35
p6133
I16342
sV\u9739
p6134
I188
sV\u993d
p6135
I1
sV\u5c3f
p6136
I5422
sV\u81c2
p6137
I1747
sV\u6545
p6138
I21703
sV\u8bc6
p6139
I46770
sV\u7b51
p6140
I8576
sV\u7d55
p6141
I2
sV\u63d6
p6142
I54
sV\u6fde
p6143
I10
sV\u5361
p6144
I26075
sV\u9663
p6145
I1
sV\u5565
p6146
I991
sV\u9867
p6147
I1
sV\u7be6
p6148
I19
sV\u5f69
p6149
I17011
sV\u626b
p6150
I3911
sV\u80ec
p6151
I4
sV\u53f6
p6152
I6979
sV\u5ffe
p6153
I42
sV\u538b
p6154
I27386
sV\u558f
p6155
I30
sV\u9a91
p6156
I4615
sV\u9c95
p6157
I2
sV\u7d14
p6158
I7
sV\u8216
p6159
I3
sV\u689d
p6160
I2
sV\u8e1e
p6161
I228
sV\u5320
p6162
I799
sV\u9022
p6163
I1890
sV\u5524
p6164
I1481
sV\u83ab
p6165
I8961
sV\u85af
p6166
I641
sV\u6832
p6167
I4
sV\u7236
p6168
I13860
sV\u8340
p6169
I103
sV\u914c
p6170
I350
sV\u564e
p6171
I100
sV\u86d9
p6172
I360
sV\u88dd
p6173
I3
sV\u7360
p6174
I16
sV\u7564
p6175
I18
sV\u9ee9
p6176
I35
sV\u7f68
p6177
I1
sV\u60ed
p6178
I216
sV\u866e
p6179
I2
sV\u8872
p6180
I11
sV\u6cf5
p6181
I302
sV\u76f9
p6182
I100
sV\u9e7e
p6183
I1
sV\u8703
p6184
I49
sV\u8907
p6185
I1
sV\u4e09
p6186
I123033
sV\u500d
p6187
I9533
sV\u950f
p6188
I374
sV\u768e
p6189
I273
sV\u5a11
p6190
I50
sV\u9f13
p6191
I9157
sV\u5c15
p6192
I29
sV\u4e9e
p6193
I4
sV\u61ac
p6194
I424
sV\u8a31
p6195
I4
sV\u8c35
p6196
I5
sV\u5d3f
p6197
I1
sV\u6241
p6198
I2244
sV\u80c2
p6199
I7
sV\u6445
p6200
I1
sV\u6e49
p6201
I4
sV\u51cc
p6202
I3668
sV\u96ce
p6203
I41
sV\u7a51
p6204
I14
sV\u5bd0
p6205
I240
sV\u98d2
p6206
I62
sV\u62d6
p6207
I3877
sV\u64da
p6208
I6
sV\u8d5f
p6209
I397
sV\u6ede
p6210
I2193
sV\u5261
p6211
I1
sV\u9967
p6212
I6
sV\u7ae6
p6213
I9
sV\u81ec
p6214
I18
sV\u8bf0
p6215
I50
sV\u54fa
p6216
I809
sV\u5efe
p6217
I1
sV\u6400
p6218
I129
sV\u8385
p6219
I78
sV\u6808
p6220
I338
sV\u548b
p6221
I420
sV\u978d
p6222
I931
sV\u760c
p6223
I1
sV\u5893
p6224
I3837
sV\u7a14
p6225
I43
sV\u6199
p6226
I3
sV\u831a
p6227
I2
sV\u4e1c
p6228
I113315
sV\u75a1
p6229
I666
sV\u5420
p6230
I67
sV\u73a5
p6231
I54
sV\u5224
p6232
I17913
sV\u82af
p6233
I3281
sV\u9cbb
p6234
I1
sV\u5fbd
p6235
I3500
sV\u793e
p6236
I82614
sV\u8244
p6237
I3
sV\u6ec7
p6238
I426
sV\u964c
p6239
I1631
sV\u5f52
p6240
I11192
sV\u8fdd
p6241
I10867
sV\u6e5c
p6242
I21
sV\u816e
p6243
I318
sV\u6df1
p6244
I47267
sV\u8f72
p6245
I47
sV\u6bf5
p6246
I6
sV\u9576
p6247
I587
sV\u71f9
p6248
I9
sV\u5e7c
p6249
I3467
sV\u8003
p6250
I146976
sV\u8e07
p6251
I12
sV\u6b8a
p6252
I7868
sV\u570d
p6253
I1
sV\u5d11
p6254
I7
sV\u9813
p6255
I6
sV\u8098
p6256
I531
sV\u6c1b
p6257
I3841
sV\u8e9c
p6258
I1
sV\u6a1f
p6259
I329
sV\u94a0
p6260
I572
sV\u7023
p6261
I20
sV\u57a2
p6262
I351
sV\u98a8
p6263
I1
sV\u5baa
p6264
I2851
sV\u8d31
p6265
I669
sV\u9139
p6266
I4
sV\u70b8
p6267
I8415
sV\u5c3b
p6268
I6
sV\u6345
p6269
I295
sV\u8dc6
p6270
I67
sV\u8bca
p6271
I9573
sV\u91ce
p6272
I11269
sV\u5ad4
p6273
I221
sV\u65d6
p6274
I70
sV\u63da
p6275
I1
sV\u4f5d
p6276
I37
sV\u5561
p6277
I2317
sV\u9063
p6278
I2109
sV\u77e2
p6279
I577
sV\u9e67
p6280
I10
sV\u7bea
p6281
I42
sV\u626f
p6282
I1091
sV\u90f8
p6283
I141
sV\u7c7b
p6284
I56933
sV\u9efc
p6285
I4
sV\u7a7f
p6286
I11827
sV\u6500
p6287
I2277
sV\u6304
p6288
I1
sV\u558b
p6289
I212
sV\u968d
p6290
I72
sV\u9c91
p6291
I40
sV\u7d10
p6292
I2
sV\u5993
p6293
I980
sV\u9a95
p6294
I11
sV\u7b14
p6295
I18066
sV\u6e9d
p6296
I1
sV\u5520
p6297
I262
sV\u5324
p6298
I1
sV\u6e32
p6299
I606
sV\u7436
p6300
I212
sV\u783e
p6301
I97
sV\u73cf
p6302
I27
sV\u504e
p6303
I87
sV\u9b54
p6304
I2510
sV\u80d9
p6305
I3
sV\u6f5c
p6306
I21738
sV\u94e1
p6307
I33
sV\u5fe7
p6308
I5286
sV\u7968
p6309
I43443
sV\u6cf1
p6310
I76
sV\u8e72
p6311
I551
sV\u70f9
p6312
I824
sV\u5178
p6313
I14549
sV\u7efd
p6314
I375
sV\u5f7c
p6315
I3806
sV\u987e
p6316
I15267
sV\u6682
p6317
I7660
sV\u6c86
p6318
I19
sV\u950b
p6319
I6726
sV\u708e
p6320
I8817
sV\u5c11
p6321
I77771
sV\u6717
p6322
I9546
sV\u8198
p6323
I42
sV\u6d1b
p6324
I9100
sV\u8f9c
p6325
I780
sV\u7f27
p6326
I2
sV\u99a8
p6327
I922
sV\u5aaa
p6328
I31
sV\u862d
p6329
I13
sV\u67ac
p6330
I2
sV\u8c31
p6331
I2136
sV\u6bb4
p6332
I280
sV\u71b8
p6333
I1
sV\u9e3d
p6334
I282
sV\u5b3f
p6335
I4
sV\u6441
p6336
I69
sV\u6849
p6337
I26
sV\u764d
p6338
I3
sV\u57cc
p6339
I2
sV\u90ce
p6340
I2899
sV\u9ed2
p6341
I8
sV\u5bd4
p6342
I2
sV\u8757
p6343
I62
sV\u8d5b
p6344
I84524
sV\u62da
p6345
I81
sV\u4e5d
p6346
I16039
sV\u8b5f
p6347
I1
sV\u9163
p6348
I275
sV\u5265
p6349
I1837
sV\u656b
p6350
I2
sV\u4ef2
p6351
I2339
sV\u8bf4
p6352
I201571
sV\u52fa
p6353
I258
sV\u6600
p6354
I61
sV\u6004
p6355
I14
sV\u9f91
p6356
I1
sV\u9995
p6357
I49
sV\u7814
p6358
I73545
sV\u811a
p6359
I11035
sV\u6d9d
p6360
I76
sV\u77a1
p6361
I3
sV\u9522
p6362
I113
sV\u7ba9
p6363
I55
sV\u80af
p6364
I13403
sV\u6d32
p6365
I26715
sV\u94b7
p6366
I1
sV\u7736
p6367
I183
sV\u9ebb
p6368
I6562
sV\u7b3e
p6369
I5
sV\u62c3
p6370
I2
sV\u4f46
p6371
I147320
sV\u8a48
p6372
I13
sV\u70cf
p6373
I3
sV\u534e
p6374
I70987
sV\u9854
p6375
I1
sV\u6258
p6376
I21390
sV\u8ddd
p6377
I14137
sV\u6c5c
p6378
I19
sV\u52e3
p6379
I8
sV\u65ed
p6380
I1559
sV\u4e70
p6381
I32736
sV\u9776
p6382
I1022
sV\u8c07
p6383
I3
sV\u6f86
p6384
I1
sV\u960b
p6385
I11
sV\u900f
p6386
I17258
sV\u738e
p6387
I1
sV\u5f11
p6388
I85
sV\u5915
p6389
I2034
sV\u8298
p6390
I27
sV\u6e1b
p6391
I3
sV\u7c27
p6392
I276
sV\u9aa8
p6393
I10208
sV\u59aa
p6394
I21
sV\u64ac
p6395
I168
sV\u72b8
p6396
I20
sV\u5e3b
p6397
I4
sV\u7cbc
p6398
I75
sV\u6b49
p6399
I1530
sV\u89ca
p6400
I136
sV\u54cc
p6401
I95
sV\u7f51
p6402
I103647
sV\u8457
p6403
I14054
sV\u5761
p6404
I5764
sV\u75e2
p6405
I137
sV\u5165
p6406
I120986
sV\u7fe6
p6407
I30
sV\u5b69
p6408
I30430
sV\u666b
p6409
I4
sV\u84ec
p6410
I1081
sV\u606f
p6411
I63692
sV\u88f4
p6412
I824
sV\u7477
p6413
I25
sV\u57f6
p6414
I1
sV\u7e7b
p6415
I1
sV\u51fa
p6416
I310876
sV\u8681
p6417
I518
sV\u6700
p6418
I170186
sV\u8085
p6419
I1
sV\u8a89
p6420
I5613
sV\u578b
p6421
I87198
sV\u948d
p6422
I2
sV\u518f
p6423
I12
sV\u7f10
p6424
I1
sV\u5b93
p6425
I63
sV\u8616
p6426
I7
sV\u9e26
p6427
I665
sV\u87ab
p6428
I10
sV\u622e
p6429
I283
sV\u8bb3
p6430
I1035
sV\u6c32
p6431
I39
sV\u5cbd
p6432
I3
sV\u6dc7
p6433
I203
sV\u954c
p6434
I82
sV\u71cf
p6435
I1
sV\u524e
p6436
I14
sV\u9f50
p6437
I8972
sV\u7bd3
p6438
I80
sV\u9954
p6439
I3
sV\u4fdb
p6440
I2
sV\u6d5c
p6441
I51
sV\u7760
p6442
I1
sV\u53e3
p6443
I65015
sV\u7164
p6444
I3868
sV\u5de7
p6445
I7534
sV\u64ed
p6446
I1
sV\u826e
p6447
I51
sV\u4f70
p6448
I261
sV\u68f5
p6449
I815
sV\u9676
p6450
I3539
sV\u5378
p6451
I1153
sV\u9a7e
p6452
I12742
sV\u8303
p6453
I33961
sV\u6482
p6454
I79
sV\u8d07
p6455
I15
sV\u6e86
p6456
I1
sV\u970b
p6457
I1
sV\u540d
p6458
I117533
sV\u5e11
p6459
I3
sV\u9b13
p6460
I109
sV\u7c92
p6461
I2083
sV\u5815
p6462
I461
sV\u8398
p6463
I241
sV\u691f
p6464
I19
sV\u97a0
p6465
I264
sV\u7d27
p6466
I23314
sV\u5ea6
p6467
I152077
sV\u58aa
p6468
I1
sV\u8e31
p6469
I86
sV\u8835
p6470
I2
sV\u69b4
p6471
I972
sV\u5537
p6472
I9
sV\u6641
p6473
I85
sV\u55cc
p6474
I2
sV\u5fd0
p6475
I138
sV\u7855
p6476
I5750
sV\u59d4
p6477
I39141
sV\u60da
p6478
I134
sV\u895f
p6479
I462
sV\u74e2
p6480
I132
sV\u5065
p6481
I24845
sV\u7ee6
p6482
I15
sV\u8ff0
p6483
I21772
sV\u797f
p6484
I1
sV\u8981
p6485
I341799
sV\u6800
p6486
I38
sV\u8f85
p6487
I6092
sV\u5e8f
p6488
I15919
sV\u9191
p6489
I2
sV\u5428
p6490
I6178
sV\u88ab
p6491
I92425
sV\u972a
p6492
I3
sV\u8eaf
p6493
I610
sV\u6d2e
p6494
I31
sV\u6332
p6495
I14
sV\u9ab7
p6496
I62
sV\u90bb
p6497
I2750
sV\u7f3a
p6498
I21923
sV\u753e
p6499
I47
sV\u8840
p6500
I25607
sV\u6cc3
p6501
I2
sV\u8e44
p6502
I471
sV\u62c7
p6503
I510
sV\u78cb
p6504
I889
sV\u7ecf
p6505
I239212
sV\u5d4e
p6506
I2
sV\u9050
p6507
I280
sV\u5352
p6508
I692
sV\u9654
p6509
I4
sV\u99e1
p6510
I2
sV\u5ce3
p6511
I4
sV\u95e9
p6512
I15
sV\u7468
p6513
I114
sV\u9976
p6514
I1029
sV\u73fd
p6515
I1
sV\u8c03
p6516
I84895
sV\u6b82
p6517
I5
sV\u8207
p6518
I8
sV\u678a
p6519
I1
sV\u7392
p6520
I19
sV\u6a17
p6521
I2
sV\u8c98
p6522
I20
sV\u601b
p6523
I7
sV\u829c
p6524
I529
sV\u661f
p6525
I26539
sV\u98a0
p6526
I1441
sV\u5ba2
p6527
I69037
sV\u94a8
p6528
I246
sV\u6aac
p6529
I334
sV\u8131
p6530
I9552
sV\u60b0
p6531
I3
sV\u66b4
p6532
I8921
sV\u503b
p6533
I2
sV\u563f
p6534
I419
sV\u8bc2
p6535
I17
sV\u4ec4
p6536
I60
sV\u81c6
p6537
I283
sV\u6549
p6538
I5
sV\u87ca
p6539
I6
sV\u7b4d
p6540
I1
sV\u5acc
p6541
I2983
sV\u56d4
p6542
I50
sV\u865f
p6543
I1
sV\u71e6
p6544
I1
sV\u686b
p6545
I4
sV\u6e6f
p6546
I4
sV\u80f0
p6547
I741
sV\u86f4
p6548
I2
sV\u7a77
p6549
I4201
sV\u92fc
p6550
I1
sV\u55fe
p6551
I3
sV\u8881
p6552
I2418
sV\u8e85
p6553
I22
sV\u6508
p6554
I1
sV\u9091
p6555
I408
sV\u7110
p6556
I9
sV\u8816
p6557
I2
sV\u6c99
p6558
I13211
sV\u78a1
p6559
I1
sV\u7ea5
p6560
I48
sV\u9026
p6561
I20
sV\u74a9
p6562
I22
sV\u962a
p6563
I1207
sV\u6c2e
p6564
I376
sV\u6232
p6565
I1
sV\u8548
p6566
I8
sV\u79cb
p6567
I6235
sV\u5c4e
p6568
I203
sV\u9150
p6569
I28
sV\u635c
p6570
I1
sV\u98e1
p6571
I1
sV\u7960
p6572
I597
sV\u5de3
p6573
I1
sV\u9ee5
p6574
I18
sV\u94e9
p6575
I31
sV\u8272
p6576
I49908
sV\u9876
p6577
I10830
sV\u5011
p6578
I1
sV\u7292
p6579
I66
sV\u611b
p6580
I18
sV\u4e9a
p6581
I46282
sV\u839c
p6582
I8
sV\u671f
p6583
I121827
sV\u7327
p6584
I1
sV\u8a2d
p6585
I2
sV\u4f2f
p6586
I8009
sV\u5b37
p6587
I16
sV\u6841
p6588
I34
sV\u4fc4
p6589
I25617
sV\u80c6
p6590
I5055
sV\u86ca
p6591
I152
sV\u7a4d
p6592
I2
sV\u5bcc
p6593
I25828
sV\u9cce
p6594
I4
sV\u57d4
p6595
I1023
sV\u6eda
p6596
I2699
sV\u64de
p6597
I81
sV\u70e6
p6598
I5140
sV\u696b
p6599
I19
sV\u8bec
p6600
I274
sV\u7b77
p6601
I421
sV\u58f6
p6602
I753
sV\u5efa
p6603
I93801
sV\u777f
p6604
I662
sV\u8d85
p6605
I41717
sV\u998d
p6606
I81
sV\u780c
p6607
I384
sV\u5693
p6608
I65
sV\u6f99
p6609
I1
sV\u4e18
p6610
I1281
sV\u619d
p6611
I1
sV\u7ba1
p6612
I98932
sV\u5a20
p6613
I792
sV\u5c24
p6614
I15996
sV\u9326
p6615
I1
sV\u77a9
p6616
I868
sV\u5628
p6617
I1
sV\u952a
p6618
I5
sV\u98b7
p6619
I7
sV\u5fb9
p6620
I4
sV\u51bd
p6621
I79
sV\u94bf
p6622
I27
sV\u773e
p6623
I3
sV\u60c7
p6624
I46
sV\u7acb
p6625
I75582
sV\u984c
p6626
I1
sV\u5152
p6627
I27
sV\u8fd9
p6628
I434800
sV\u6e58
p6629
I2021
sV\u7a60
p6630
I1
sV\u5ee3
p6631
I4
sV\u50e7
p6632
I1163
sV\u97e9
p6633
I17044
sV\u7668
p6634
I2
sV\u69ed
p6635
I6
sV\u8f6e
p6636
I22022
sV\u5e78
p6637
I9291
sV\u6982
p6638
I15890
sV\u590d
p6639
I50617
sV\u7f8e
p6640
I157641
sV\u6817
p6641
I624
sV\u621b
p6642
I193
sV\u809c
p6643
I3
sV\u9aa0
p6644
I127
sV\u9ca4
p6645
I144
sV\u53a6
p6646
I5989
sV\u96a8
p6647
I1
sV\u8331
p6648
I108
sV\u8535
p6649
I2
sV\u9f39
p6650
I54
sV\u7eb8
p6651
I9251
sV\u523b
p6652
I15152
sV\u70bc
p6653
I4557
sV\u543f
p6654
I18
sV\u89c2
p6655
I54774
sV\u6d45
p6656
I2601
sV\u6749
p6657
I1544
sV\u52d0
p6658
I55
sV\u54d4
p6659
I21
sV\u8857
p6660
I11071
sV\u6bd6
p6661
I30
sV\u4f59
p6662
I20796
sV\u6dda
p6663
I1
sV\u67de
p6664
I14
sV\u9e63
p6665
I2
sV\u5769
p6666
I14
sV\u6a6b
p6667
I1
sV\u75ea
p6668
I438
sV\u4fee
p6669
I25131
sV\u7877
p6670
I23
sV\u4f83
p6671
I796
sV\u8c85
p6672
I21
sV\u6d04
p6673
I11
sV\u6708
p6674
I173502
sV\u5b8b
p6675
I6751
sV\u988d
p6676
I50
sV\u790c
p6677
I4
sV\u5793
p6678
I18
sV\u9495
p6679
I7
sV\u8a16
p6680
I2
sV\u4f18
p6681
I42971
sV\u8c1a
p6682
I214
sV\u609d
p6683
I4
sV\u7ca5
p6684
I831
sV\u5d24
p6685
I2
sV\u76a9
p6686
I1
sV\u5728
p6687
I783260
sV\u8bab
p6688
I39
sV\u87b3
p6689
I33
sV\u5eb9
p6690
I7
sV\u763e
p6691
I1089
sV\u8d44
p6692
I162341
sV\u8748
p6693
I34
sV\u9554
p6694
I3
sV\u6f58
p6695
I2655
sV\u80dd
p6696
I27
sV\u9ae1
p6697
I11
sV\u7b60
p6698
I91
sV\u9ce5
p6699
I2
sV\u96e9
p6700
I2
sV\u7768
p6701
I51
sV\u62f1
p6702
I602
sV\u9a76
p6703
I11344
sV\u70fd
p6704
I298
sV\u517c
p6705
I8423
sV\u8f03
p6706
I1
sV\u580d
p6707
I4
sV\u5211
p6708
I6215
sV\u9713
p6709
I141
sV\u7092
p6710
I3411
sV\u5415
p6711
I1962
sV\u8f98
p6712
I129
sV\u631b
p6713
I309
sV\u819c
p6714
I4341
sV\u7f23
p6715
I4
sV\u97a8
p6716
I14
sV\u54aa
p6717
I229
sV\u8231
p6718
I2792
sV\u63b0
p6719
I124
sV\u5937
p6720
I1819
sV\u9e39
p6721
I2
sV\u7fb8
p6722
I45
sV\u533b
p6723
I80246
sV\u88c2
p6724
I3790
sV\u84ca
p6725
I4
sV\u59cc
p6726
I10
sV\u9ece
p6727
I3687
sV\u7455
p6728
I212
sV\u55d4
p6729
I63
sV\u4e59
p6730
I5184
sV\u835b
p6731
I2
sV\u5c65
p6732
I4504
sV\u5669
p6733
I374
sV\u6d6f
p6734
I3
sV\u83f0
p6735
I3
sV\u6773
p6736
I72
sV\u7977
p6737
I353
sV\u5af6
p6738
I1
sV\u757f
p6739
I62
sV\u56fe
p6740
I43216
sV\u8d81
p6741
I1487
sV\u9591
p6742
I1
sV\u7410
p6743
I820
sV\u6999
p6744
I1
sV\u679d
p6745
I1833
sV\u811e
p6746
I1
sV\u9526
p6747
I5196
sV\u5028
p6748
I16
sV\u59b9
p6749
I3369
sV\u94bb
p6750
I2869
sV\u7b3a
p6751
I53
sV\u8c40
p6752
I2
sV\u9e4c
p6753
I72
sV\u594e
p6754
I770
sV\u4ed7
p6755
I2535
sV\u65f1
p6756
I677
sV\u77fd
p6757
I63
sV\u567c
p6758
I48
sV\u8803
p6759
I3
sV\u6f82
p6760
I10
sV\u8607
p6761
I2
sV\u638a
p6762
I5
sV\u5511
p6763
I143
sV\u7792
p6764
I748
sV\u5315
p6765
I118
sV\u6e17
p6766
I1596
sV\u641b
p6767
I5
sV\u869c
p6768
I6
sV\u621f
p6769
I352
sV\u9ca0
p6770
I27
sV\u7823
p6771
I22
sV\u9aa4
p6772
I1791
sV\u90a8
p6773
I2
sV\u64b0
p6774
I1557
sV\u8335
p6775
I516
sV\u5e37
p6776
I721
sV\u543b
p6777
I1776
sV\u523f
p6778
I8
sV\u6d41
p6779
I68565
sV\u8fc2
p6780
I278
sV\u83ca
p6781
I771
sV\u5ecc
p6782
I1
sV\u7551
p6783
I21
sV\u54d0
p6784
I35
sV\u52d4
p6785
I1
sV\u6dd6
p6786
I51
sV\u845b
p6787
I2242
sV\u825f
p6788
I10
sV\u5b65
p6789
I5
sV\u9667
p6790
I2
sV\u5169
p6791
I10
sV\u73ea
p6792
I16
sV\u84f0
p6793
I1
sV\u6073
p6794
I676
sV\u82f4
p6795
I2
sV\u5bfa
p6796
I4654
sV\u8a85
p6797
I6
sV\u6b04
p6798
I5
sV\u8089
p6799
I9931
sV\u6108
p6800
I4407
sV\u5d8b
p6801
I3
sV\u7f0c
p6802
I13
sV\u5b8f
p6803
I7104
sV\u8c16
p6804
I5
sV\u8a1a
p6805
I5
sV\u669d
p6806
I5
sV\u9e22
p6807
I37
sV\u7aa5
p6808
I591
sV\u4ead
p6809
I1289
sV\u8baf
p6810
I16757
sV\u81b3
p6811
I572
sV\u8d40
p6812
I16
sV\u69c3
p6813
I34
sV\u4e42
p6814
I10
sV\u8148
p6815
I23
sV\u9550
p6816
I204
sV\u4fd7
p6817
I6730
sV\u88d9
p6818
I1052
sV\u675c
p6819
I4600
sV\u59e3
p6820
I61
sV\u7168
p6821
I50
sV\u4f6c
p6822
I295
sV\u886e
p6823
I139
sV\u5978
p6824
I1595
sV\u9a7a
p6825
I15
sV\u577c
p6826
I6
sV\u8707
p6827
I73
sV\u628a
p6828
I71792
sV\u9b0f
p6829
I4
sV\u788e
p6830
I2619
sV\u5411
p6831
I94450
sV\u631f
p6832
I361
sV\u54a6
p6833
I40
sV\u91a8
p6834
I1
sV\u52aa
p6835
I10847
sV\u8431
p6836
I143
sV\u65b0
p6837
I195762
sV\u8235
p6838
I357
sV\u63b4
p6839
I4
sV\u5f37
p6840
I4
sV\u533f
p6841
I603
sV\u6c41
p6842
I1953
sV\u82ca
p6843
I2
sV\u5fcc
p6844
I3078
sV\u98ce
p6845
I58265
sV\u7451
p6846
I2
sV\u55d0
p6847
I1
sV\u96d2
p6848
I20
sV\u53d4
p6849
I1401
sV\u835f
p6850
I315
sV\u5c61
p6851
I2634
sV\u9963
p6852
I3
sV\u7ee2
p6853
I198
sV\u74e6
p6854
I7748
sV\u5cf6
p6855
I1
sV\u757b
p6856
I1
sV\u50fe
p6857
I2
sV\u8f81
p6858
I4
sV\u8389
p6859
I1678
sV\u6208
p6860
I3106
sV\u5e8b
p6861
I7
sV\u7c0c
p6862
I39
sV\u9791
p6863
I63
sV\u7610
p6864
I10
sV\u5293
p6865
I4
sV\u891a
p6866
I112
sV\u7fa1
p6867
I1057
sV\u79a5
p6868
I3
sV\u5824
p6869
I589
sV\u73a9
p6870
I10132
sV\u5228
p6871
I171
sV\u8eab
p6872
I75913
sV\u82b3
p6873
I3221
sV\u9cb7
p6874
I9
sV\u7f36
p6875
I6
sV\u5bb9
p6876
I55693
sV\u793a
p6877
I78564
sV\u55bd
p6878
I155
sV\u733e
p6879
I200
sV\u8e40
p6880
I3
sV\u8844
p6881
I8
sV\u64c7
p6882
I1
sV\u7ecb
p6883
I3
sV\u9650
p6884
I56512
sV\u9054
p6885
I12
sV\u8bd9
p6886
I116
sV\u6a58
p6887
I456
sV\u85dd
p6888
I1
sV\u5ae3
p6889
I118
sV\u54e7
p6890
I110
sV\u67f1
p6891
I3263
sV\u8572
p6892
I28
sV\u61f5
p6893
I198
sV\u997a
p6894
I312
sV\u547c
p6895
I10756
sV\u937e
p6896
I11
sV\u4f01
p6897
I89257
sV\u6d82
p6898
I3551
sV\u618a
p6899
I1
sV\u8a98
p6900
I2
sV\u849c
p6901
I458
sV\u7a23
p6902
I272
sV\u98a4
p6903
I579
sV\u57a6
p6904
I365
sV\u4e2b
p6905
I515
sV\u8d2d
p6906
I41722
sV\u6cac
p6907
I5
sV\u8731
p6908
I8
sV\u60b4
p6909
I148
sV\u7ab8
p6910
I2
sV\u563b
p6911
I335
sV\u4ec0
p6912
I59965
sV\u87c6
p6913
I55
sV\u6349
p6914
I1490
sV\u81ca
p6915
I38
sV\u7751
p6916
I156
sV\u7155
p6917
I1
sV\u50d4
p6918
I14
sV\u865b
p6919
I3
sV\u5965
p6920
I21736
sV\u6e6b
p6921
I15
sV\u686f
p6922
I2
sV\u86f0
p6923
I96
sV\u6273
p6924
I1149
sV\u80f4
p6925
I15
sV\u767b
p6926
I20639
sV\u94fc
p6927
I1
sV\u707f
p6928
I1182
sV\u8e81
p6929
I1621
sV\u8885
p6930
I120
sV\u6308
p6931
I34
sV\u5f8b
p6932
I28740
sV\u9c8d
p6933
I2068
sV\u9095
p6934
I50
sV\u821e
p6935
I8019
sV\u7ea1
p6936
I5
sV\u5f20
p6937
I52021
sV\u5924
p6938
I7
sV\u8fab
p6939
I309
sV\u83b3
p6940
I9
sV\u783a
p6941
I195
sV\u54bd
p6942
I1280
sV\u723e
p6943
I10
sV\u8944
p6944
I517
sV\u79cf
p6945
I8
sV\u73d3
p6946
I1
sV\u5452
p6947
I5
sV\u6b58
p6948
I1
sV\u84dd
p6949
I8793
sV\u7964
p6950
I1
sV\u7368
p6951
I1
sV\u7af9
p6952
I2560
sV\u5b78
p6953
I7
sV\u987a
p6954
I14531
sV\u557c
p6955
I261
sV\u4e01
p6956
I7098
sV\u6c82
p6957
I201
sV\u9f0b
p6958
I13
sV\u5c0d
p6959
I2
sV\u5015
p6960
I1
sV\u6d17
p6961
I10126
sV\u671b
p6962
I43783
sV\u859c
p6963
I8
sV\u611f
p6964
I74770
sV\u5ca2
p6965
I6
sV\u4f2b
p6966
I75
sV\u8c2d
p6967
I2077
sV\u6dac
p6968
I1
sV\u67b0
p6969
I11
sV\u8035
p6970
I66
sV\u7bb8
p6971
I15
sV\u573b
p6972
I8
sV\u75bc
p6973
I3346
sV\u513f
p6974
I34079
sV\u6845
p6975
I164
sV\u86c6
p6976
I44
sV\u6249
p6977
I131
sV\u7c4d
p6978
I5031
sV\u7651
p6979
I2
sV\u94d2
p6980
I2
sV\u68da
p6981
I585
sV\u5e61
p6982
I173
sV\u5269
p6983
I6387
sV\u8dec
p6984
I9
sV\u696f
p6985
I8
sV\u81f4
p6986
I35582
sV\u5ef6
p6987
I14392
sV\u58fa
p6988
I2
sV\u95fc
p6989
I11
sV\u52fe
p6990
I1460
sV\u9181
p6991
I1
sV\u9785
p6992
I45
sV\u620c
p6993
I264
sV\u8f95
p6994
I142
sV\u6e14
p6995
I1619
sV\u7599
p6996
I207
sV\u7b9d
p6997
I22
sV\u5a1c
p6998
I2678
sV\u67a5
p6999
I36
sV\u6da9
p7000
I707
sV\u9cb3
p7001
I7
sV\u5fb5
p7002
I81
sV\u82b7
p7003
I214
sV\u673a
p7004
I198503
sV\u6d3e
p7005
I18001
sV\u9644
p7006
I13341
sV\u60cb
p7007
I188
sV\u5f4a
p7008
I52
sV\u6cd3
p7009
I107
sV\u5edf
p7010
I1
sV\u87e5
p7011
I93
sV\u6664
p7012
I598
sV\u8de9
p7013
I3
sV\u6c68
p7014
I18
sV\u73ed
p7015
I27165
sV\u5e74
p7016
I429078
sV\u6bfd
p7017
I18
sV\u5101
p7018
I1
sV\u800b
p7019
I30
sV\u7f8a
p7020
I4563
sV\u8c13
p7021
I12100
sV\u6b92
p7022
I49
sV\u579a
p7023
I31
sV\u9a9c
p7024
I78
sV\u80a0
p7025
I4147
sV\u6423
p7026
I3
sV\u86a4
p7027
I125
sV\u8ca8
p7028
I4
sV\u502b
p7029
I8
sV\u4faa
p7030
I23
sV\u72ac
p7031
I1137
sV\u78b0
p7032
I5289
sV\u8539
p7033
I1
sV\u64b8
p7034
I19
sV\u634d
p7035
I561
sV\u8bd2
p7036
I22
sV\u4ed4
p7037
I3784
sV\u5b5d
p7038
I1832
sV\u9e5f
p7039
I1
sV\u8463
p7040
I24039
sV\u706b
p7041
I31255
sV\u766f
p7042
I5
sV\u7c73
p7043
I35473
sV\u6e7f
p7044
I3227
sV\u5583
p7045
I198
sV\u9685
p7046
I277
sV\u7704
p7047
I3
sV\u5b87
p7048
I5953
sV\u9c89
p7049
I66
sV\u828d
p7050
I74
sV\u6910
p7051
I29
sV\u6f14
p7052
I39860
sV\u9016
p7053
I6
sV\u961a
p7054
I38
sV\u7a9d
p7055
I1723
sV\u8222
p7056
I55
sV\u6ca9
p7057
I2
sV\u91ab
p7058
I3
sV\u8e2a
p7059
I3643
sV\u52ad
p7060
I31
sV\u97af
p7061
I3
sV\u742e
p7062
I48
sV\u5eb5
p7063
I212
sV\u83b7
p7064
I38066
sV\u5242
p7065
I9479
sV\u7bc7
p7066
I7245
sV\u61cb
p7067
I87
sV\u67cf
p7068
I2514
sV\u53d7
p7069
I80472
sV\u94d9
p7070
I8
sV\u80e1
p7071
I11438
sV\u72ed
p7072
I1489
sV\u536c
p7073
I7
sV\u7ef5
p7074
I1802
sV\u867a
p7075
I2
sV\u9503
p7076
I30
sV\u5c09
p7077
I713
sV\u4e15
p7078
I350
sV\u7317
p7079
I54
sV\u7f1f
p7080
I15
sV\u6b27
p7081
I28887
sV\u8da8
p7082
I1
sV\u572f
p7083
I1
sV\u9e35
p7084
I58
sV\u51c0
p7085
I11846
sV\u624d
p7086
I73636
sV\u6851
p7087
I3732
sV\u5459
p7088
I1
sV\u62e2
p7089
I753
sV\u54ee
p7090
I685
sV\u6377
p7091
I8711
sV\u8bfc
p7092
I2
sV\u9f89
p7093
I34
sV\u4e93
p7094
I7
sV\u6c14
p7095
I52664
sV\u5618
p7096
I519
sV\u951a
p7097
I207
sV\u63a1
p7098
I7
sV\u8122
p7099
I3
sV\u65a5
p7100
I2120
sV\u92ab
p7101
I1
sV\u8d2a
p7102
I2050
sV\u94af
p7103
I28
sV\u6f3e
p7104
I216
sV\u9e48
p7105
I15
sV\u62cb
p7106
I26
sV\u5d4a
p7107
I32
sV\u804c
p7108
I70365
sV\u6ed3
p7109
I31
sV\u83e1
p7110
I14
sV\u8fe9
p7111
I105
sV\u71ed
p7112
I4
sV\u506c
p7113
I7
sV\u7bf1
p7114
I164
sV\u9972
p7115
I619
sV\u5c74
p7116
I1
sV\u69fd
p7117
I3163
sV\u8f7e
p7118
I5
sV\u9603
p7119
I7
sV\u9698
p7120
I314
sV\u989c
p7121
I4325
sV\u7c1f
p7122
I3
sV\u5f9e
p7123
I11
sV\u522b
p7124
I71818
sV\u70ac
p7125
I458
sV\u542f
p7126
I10532
sV\u9b31
p7127
I1
sV\u5e33
p7128
I3
sV\u66b8
p7129
I2
sV\u68bc
p7130
I2
sV\u7545
p7131
I4398
sV\u54c4
p7132
I734
sV\u89d2
p7133
I23460
sV\u9057
p7134
I12902
sV\u6be6
p7135
I1
sV\u4f69
p7136
I3246
sV\u86f8
p7137
I1
sV\u88fc
p7138
I6
sV\u4ffe
p7139
I62
sV\u5783
p7140
I1752
sV\u7504
p7141
I413
sV\u5987
p7142
I10461
sV\u7f08
p7143
I77
sV\u4f93
p7144
I1
sV\u7699
p7145
I73
sV\u5718
p7146
I10
sV\u591c
p7147
I12694
sV\u62a1
p7148
I60
sV\u8022
p7149
I7
sV\u64a5
p7150
I1
sV\u8c2a
p7151
I41
sV\u7832
p7152
I3
sV\u5cb5
p7153
I2
sV\u6236
p7154
I5
sV\u643a
p7155
I5071
sV\u8dbf
p7156
I10
sV\u5a46
p7157
I3319
sV\u5c4a
p7158
I16216
sV\u814c
p7159
I240
sV\u65cf
p7160
I25733
sV\u8d54
p7161
I10547
sV\u795c
p7162
I75
sV\u82e1
p7163
I23
sV\u84e5
p7164
I17
sV\u6564
p7165
I1
sV\u70ed
p7166
I36186
sV\u516c
p7167
I312265
sV\u5b70
p7168
I452
sV\u5d74
p7169
I13
sV\u66f9
p7170
I3877
sV\u847a
p7171
I48
sV\u68fd
p7172
I1
sV\u8e7e
p7173
I1
sV\u5201
p7174
I339
sV\u668e
p7175
I1
sV\u7117
p7176
I10
sV\u9798
p7177
I102
sV\u7b1b
p7178
I390
sV\u549a
p7179
I160
sV\u5e9e
p7180
I3044
sV\u83a0
p7181
I152
sV\u85a4
p7182
I6
sV\u8fa8
p7183
I2378
sV\u902d
p7184
I2
sV\u71ac
p7185
I1277
sV\u552f
p7186
I6277
sV\u67b8
p7187
I317
sV\u69bc
p7188
I2
sV\u55c4
p7189
I8
sV\u9ac6
p7190
I2
sV\u9cca
p7191
I3
sV\u604d
p7192
I387
sV\u86ce
p7193
I69
sV\u88d2
p7194
I4
sV\u6c55
p7195
I763
sV\u9157
p7196
I187
sV\u5659
p7197
I25
sV\u74da
p7198
I1
sV\u7ede
p7199
I605
sV\u8763
p7200
I2
sV\u4e69
p7201
I8
sV\u6cea
p7202
I2824
sV\u6177
p7203
I399
sV\u6b7b
p7204
I26231
sV\u7400
p7205
I1
sV\u5e87
p7206
I329
sV\u878d
p7207
I17742
sV\u660c
p7208
I5195
sV\u8d91
p7209
I1
sV\u6c10
p7210
I48
sV\u6a14
p7211
I1
sV\u7199
p7212
I1515
sV\u5018
p7213
I599
sV\u5e1c
p7214
I776
sV\u65a1
p7215
I173
sV\u8722
p7216
I13
sV\u63a5
p7217
I77700
sV\u8d26
p7218
I6854
sV\u57ad
p7219
I29
sV\u5bb5
p7220
I925
sV\u6536
p7221
I81846
sV\u8cbb
p7222
I15
sV\u633a
p7223
I4318
sV\u8abf
p7224
I1
sV\u70c3
p7225
I55
sV\u5742
p7226
I120
sV\u7ec7
p7227
I26283
sV\u62cf
p7228
I1
sV\u56d7
p7229
I5
sV\u6868
p7230
I303
sV\u77ed
p7231
I22421
sV\u566c
p7232
I251
sV\u916e
p7233
I543
sV\u5a74
p7234
I2759
sV\u5501
p7235
I46
sV\u9003
p7236
I5520
sV\u5305
p7237
I48007
sV\u840b
p7238
I11
sV\u618e
p7239
I262
sV\u8813
p7240
I10
sV\u7617
p7241
I7
sV\u539a
p7242
I8450
sV\u599e
p7243
I131
sV\u542b
p7244
I18119
sV\u972d
p7245
I56
sV\u7ab4
p7246
I2
sV\u60b8
p7247
I290
sV\u54c0
p7248
I1637
sV\u97c2
p7249
I3
sV\u7949
p7250
I78
sV\u6d51
p7251
I1379
sV\u5f5d
p7252
I289
sV\u9a5f
p7253
I1
sV\u67e2
p7254
I6
sV\u6de6
p7255
I46
sV\u6bea
p7256
I6
sV\u726f
p7257
I24
sV\u6677
p7258
I7
sV\u80f8
p7259
I4260
sV\u5f87
p7260
I104
sV\u9889
p7261
I39
sV\u868d
p7262
I7
sV\u8a95
p7263
I1
sV\u7099
p7264
I388
sV\u62a5
p7265
I130027
sV\u8c26
p7266
I1155
sV\u5cb1
p7267
I122
sV\u5ab5
p7268
I5
sV\u8bbf
p7269
I21380
sV\u683e
p7270
I147
sV\u9540
p7271
I519
sV\u71c3
p7272
I7226
sV\u5c46
p7273
I1
sV\u65cb
p7274
I4571
sV\u5a4a
p7275
I32
sV\u874c
p7276
I30
sV\u63cf
p7277
I5628
sV\u8d50
p7278
I917
sV\u4e52
p7279
I3825
sV\u57d7
p7280
I6
sV\u9edd
p7281
I96
sV\u5bdf
p7282
I19835
sV\u82e5
p7283
I11291
sV\u88e9
p7284
I1
sV\u76ed
p7285
I1
sV\u906e
p7286
I1259
sV\u8476
p7287
I4
sV\u60f9
p7288
I1174
sV\u827a
p7289
I17321
sV\u4f7c
p7290
I502
sV\u887e
p7291
I12
sV\u5401
p7292
I1742
sV\u7682
p7293
I538
sV\u830f
p7294
I36
sV\u8913
p7295
I40
sV\u7717
p7296
I6
sV\u5496
p7297
I2333
sV\u589e
p7298
I78384
sV\u6123
p7299
I454
sV\u962d
p7300
I3
sV\u77ac
p7301
I1670
sV\u9c31
p7302
I1
sV\u9a35
p7303
I1
sV\u7bb4
p7304
I92
sV\u8039
p7305
I1
sV\u8e3d
p7306
I13
sV\u7441
p7307
I42
sV\u80ce
p7308
I5828
sV\u74d6
p7309
I1
sV\u9b5f
p7310
I1
sV\u8f67
p7311
I265
sV\u756b
p7312
I4
sV\u97ec
p7313
I391
sV\u736f
p7314
I1
sV\u50ee
p7315
I41
sV\u6777
p7316
I50
sV\u7600
p7317
I139
sV\u5283
p7318
I2
sV\u8f91
p7319
I9094
sV\u6e10
p7320
I12705
sV\u9716
p7321
I479
sV\u7399
p7322
I1
sV\u5218
p7323
I22133
sV\u892a
p7324
I243
sV\u90af
p7325
I200
sV\u732e
p7326
I8726
sV\u6b3e
p7327
I46778
sV\u9640
p7328
I713
sV\u72c3
p7329
I2
sV\u9044
p7330
I2
sV\u8e50
p7331
I1
sV\u8854
p7332
I1853
sV\u54d7
p7333
I596
sV\u7258
p7334
I5
sV\u5edb
p7335
I6
sV\u6064
p7336
I536
sV\u8be9
p7337
I131
sV\u7ff1
p7338
I101
sV\u5e70
p7339
I1
sV\u8776
p7340
I994
sV\u817a
p7341
I5828
sV\u5b09
p7342
I279
sV\u860b
p7343
I1
sV\u798a
p7344
I5
sV\u4f11
p7345
I14351
sV\u9c9c
p7346
I13148
sV\u781f
p7347
I2
sV\u5b9e
p7348
I185412
sV\u80a4
p7349
I7136
sV\u6c27
p7350
I3858
sV\u4fa6
p7351
I4994
sV\u952d
p7352
I143
sV\u7eb0
p7353
I39
sV\u78b4
p7354
I55
sV\u8339
p7355
I241
sV\u4e3b
p7356
I192740
sV\u8d3d
p7357
I46
sV\u6cbc
p7358
I418
sV\u7741
p7359
I774
sV\u7145
p7360
I29
sV\u7b49
p7361
I156535
sV\u5ac8
p7362
I1
sV\u9e5b
p7363
I1
sV\u71da
p7364
I1
sV\u65e2
p7365
I13568
sV\u766b
p7366
I334
sV\u94ec
p7367
I448
sV\u706f
p7368
I7828
sV\u53ee
p7369
I540
sV\u5df2
p7370
I119344
sV\u8cfc
p7371
I5
sV\u687f
p7372
I2
sV\u7700
p7373
I1
sV\u9085
p7374
I2
sV\u7b08
p7375
I143
sV\u9616
p7376
I103
sV\u901a
p7377
I153001
sV\u7c9d
p7378
I5
sV\u6aa9
p7379
I8
sV\u97ab
p7380
I2
sV\u54ad
p7381
I1
sV\u91af
p7382
I7
sV\u85b7
p7383
I5
sV\u6636
p7384
I149
sV\u6a3e
p7385
I51
sV\u5442
p7386
I1
sV\u9b48
p7387
I2
sV\u584a
p7388
I2
sV\u6bd3
p7389
I258
sV\u9cdd
p7390
I69
sV\u7d5c
p7391
I4
sV\u59df
p7392
I2
sV\u6760
p7393
I1035
sV\u80e5
p7394
I145
sV\u556c
p7395
I170
sV\u7ef1
p7396
I1
sV\u5f70
p7397
I1149
sV\u5974
p7398
I2910
sV\u6cfd
p7399
I10445
sV\u5601
p7400
I4
sV\u9d07
p7401
I1
sV\u5a09
p7402
I12
sV\u810f
p7403
I5682
sV\u4e11
p7404
I1760
sV\u6c92
p7405
I12
sV\u7f1b
p7406
I44
sV\u6323
p7407
I2294
sV\u6d27
p7408
I4
sV\u4ea6
p7409
I5235
sV\u8ba8
p7410
I12341
sV\u75ac
p7411
I1
sV\u9e31
p7412
I12
sV\u7fb0
p7413
I7
sV\u8239
p7414
I12418
sV\u63b8
p7415
I41
sV\u6dbc
p7416
I1
sV\u94c2
p7417
I258
sV\u51c4
p7418
I492
sV\u98ca
p7419
I2
sV\u82ce
p7420
I19
sV\u4fd0
p7421
I216
sV\u6855
p7422
I16
sV\u9557
p7423
I35
sV\u76d6
p7424
I11123
sV\u995f
p7425
I1
sV\u7ade
p7426
I27322
sV\u8363
p7427
I10794
sV\u64e2
p7428
I56
sV\u8d67
p7429
I9
sV\u6ee6
p7430
I68
sV\u776b
p7431
I402
sV\u52ee
p7432
I3
sV\u6577
p7433
I825
sV\u83f8
p7434
I3
sV\u8dfc
p7435
I1
sV\u9981
p7436
I126
sV\u7800
p7437
I29
sV\u9f85
p7438
I19
sV\u5287
p7439
I2
sV\u9589
p7440
I1
sV\u4e8f
p7441
I6232
sV\u8191
p7442
I10
sV\u6614
p7443
I1134
sV\u5c18
p7444
I3139
sV\u951e
p7445
I1
sV\u6fa5
p7446
I1
sV\u4e24
p7447
I107948
sV\u65a9
p7448
I1356
sV\u5bad
p7449
I3
sV\u51b1
p7450
I1
sV\u94b3
p7451
I303
sV\u8ab7
p7452
I1
sV\u653e
p7453
I60787
sV\u9e44
p7454
I40
sV\u5146
p7455
I1665
sV\u68cb
p7456
I3617
sV\u574a
p7457
I1540
sV\u8a4c
p7458
I1
sV\u6ecf
p7459
I5
sV\u8654
p7460
I286
sV\u56df
p7461
I7
sV\u6860
p7462
I18
sV\u8fe5
p7463
I298
sV\u85e9
p7464
I581
sV\u71f1
p7465
I1
sV\u5674
p7466
I1
sV\u6df9
p7467
I542
sV\u8f7a
p7468
I2
sV\u63fd
p7469
I1230
sV\u857e
p7470
I878
sV\u5509
p7471
I404
sV\u8e0f
p7472
I3594
sV\u6d8e
p7473
I166
sV\u6392
p7474
I44957
sV\u7a17
p7475
I33
sV\u5996
p7476
I740
sV\u701b
p7477
I147
sV\u761f
p7478
I202
sV\u6c23
p7479
I4
sV\u84a8
p7480
I15
sV\u7aac
p7481
I3
sV\u9131
p7482
I93
sV\u76b4
p7483
I17
sV\u8d39
p7484
I104785
sV\u6cb8
p7485
I1151
sV\u62bc
p7486
I3135
sV\u7941
p7487
I607
sV\u7f45
p7488
I16
sV\u91c6
p7489
I2
sV\u54c8
p7490
I12775
sV\u8dce
p7491
I30
sV\u6151
p7492
I1071
sV\u6755
p7493
I9
sV\u905b
p7494
I126
sV\u7fda
p7495
I1
sV\u965f
p7496
I19
sV\u75de
p7497
I127
sV\u4f65
p7498
I15
sV\u61e6
p7499
I215
sV\u786b
p7500
I770
sV\u5dee
p7501
I28324
sV\u53f2
p7502
I36763
sV\u607b
p7503
I56
sV\u4ffa
p7504
I1096
sV\u9881
p7505
I4633
sV\u9e85
p7506
I3
sV\u7f04
p7507
I152
sV\u9489
p7508
I885
sV\u8a8d
p7509
I1
sV\u4f8f
p7510
I219
sV\u8695
p7511
I371
sV\u6714
p7512
I606
sV\u729d
p7513
I1
sV\u8a22
p7514
I61
sV\u6ea5
p7515
I302
sV\u4f24
p7516
I21433
sV\u8026
p7517
I26
sV\u64a9
p7518
I139
sV\u7232
p7519
I47
sV\u8bb7
p7520
I130
sV\u81bb
p7521
I32
sV\u6e3a
p7522
I369
sV\u8150
p7523
I4229
sV\u9cd9
p7524
I5
sV\u51db
p7525
I206
sV\u57df
p7526
I27121
sV\u88e1
p7527
I8
sV\u6960
p7528
I1974
sV\u6f64
p7529
I1
sV\u7aed
p7530
I1395
sV\u5b6c
p7531
I18
sV\u5170
p7532
I23845
sV\u62fd
p7533
I242
sV\u7a82
p7534
I4
sV\u5e05
p7535
I4832
sV\u7086
p7536
I1
sV\u5409
p7537
I14701
sV\u8513
p7538
I853
sV\u6292
p7539
I646
sV\u5e9a
p7540
I495
sV\u771f
p7541
I53263
sV\u6d23
p7542
I1
sV\u8fa4
p7543
I1
sV\u85a8
p7544
I12
sV\u592b
p7545
I26940
sV\u5f2f
p7546
I2848
sV\u5533
p7547
I19
sV\u9635
p7548
I12192
sV\u77b4
p7549
I4
sV\u6db8
p7550
I141
sV\u63bc
p7551
I3
sV\u9ac2
p7552
I28
sV\u5fc4
p7553
I4
sV\u82d2
p7554
I23
sV\u6655
p7555
I1601
sV\u5c59
p7556
I16
sV\u7eda
p7557
I424
sV\u525d
p7558
I1
sV\u74de
p7559
I2
sV\u8d63
p7560
I546
sV\u8367
p7561
I312
sV\u60e6
p7562
I137
sV\u796b
p7563
I1
sV\u6b77
p7564
I3
sV\u8df8
p7565
I20
sV\u677f
p7566
I25089
sV\u7a00
p7567
I2828
sV\u680c
p7568
I21
sV\u6210
p7569
I269979
sV\u6414
p7570
I137
sV\u5e18
p7571
I655
sV\u501c
p7572
I28
sV\u971e
p7573
I1882
sV\u6ba1
p7574
I183
sV\u9caf
p7575
I1
sV\u7f2e
p7576
I268
sV\u96b3
p7577
I7
sV\u55b5
p7578
I14
sV\u88b7
p7579
I7
sV\u84bf
p7580
I624
sV\u7ec3
p7581
I32062
sV\u5942
p7582
I80
sV\u9648
p7583
I22672
sV\u554a
p7584
I7168
sV\u884c
p7585
I301073
sV\u4f4e
p7586
I52087
sV\u52db
p7587
I2
sV\u91dd
p7588
I1
sV\u54df
p7589
I233
sV\u8be1
p7590
I388
sV\u4ee3
p7591
I104129
sV\u6c64
p7592
I5828
sV\u6668
p7593
I8386
sV\u79ed
p7594
I8
sV\u586c
p7595
I16
sV\u877e
p7596
I15
sV\u5709
p7597
I6
sV\u8c0f
p7598
I339
sV\u6f8e
p7599
I581
sV\u6192
p7600
I2
sV\u7817
p7601
I2
sV\u721b
p7602
I2
sV\u579e
p7603
I1
sV\u6e23
p7604
I589
sV\u6027
p7605
I164992
sV\u86a8
p7606
I3
sV\u72b0
p7607
I2
sV\u9535
p7608
I88
sV\u813d
p7609
I7
sV\u60bc
p7610
I405
sV\u5cc4
p7611
I6
sV\u95ca
p7612
I2
sV\u8fce
p7613
I11907
sV\u6555
p7614
I111
sV\u9857
p7615
I1
sV\u5f59
p7616
I5
sV\u7dda
p7617
I10
sV\u77de
p7618
I1
sV\u7a6b
p7619
I1
sV\u6877
p7620
I9
sV\u80fc
p7621
I19
sV\u9a81
p7622
I139
sV\u9c85
p7623
I2
sV\u7d04
p7624
I12
sV\u5187
p7625
I58
sV\u7708
p7626
I249
sV\u888d
p7627
I601
sV\u8291
p7628
I2
sV\u6310
p7629
I1
sV\u9a16
p7630
I1
sV\u5f18
p7631
I1553
sV\u709d
p7632
I7
sV\u8822
p7633
I1428
sV\u6ca5
p7634
I207
sV\u9daf
p7635
I1
sV\u7e2e
p7636
I1
sV\u52b1
p7637
I11077
sV\u97b3
p7638
I1
sV\u89b7
p7639
I1
sV\u4eb9
p7640
I1
sV\u663e
p7641
I48566
sV\u9748
p7642
I5
sV\u6bcb
p7643
I453
sV\u544a
p7644
I68269
sV\u894c
p7645
I1
sV\u6dcf
p7646
I2
sV\u4e4e
p7647
I22131
sV\u8350
p7648
I8405
sV\u67d3
p7649
I14640
sV\u59d7
p7650
I256
sV\u7f58
p7651
I19
sV\u53db
p7652
I1845
sV\u90dd
p7653
I670
sV\u715c
p7654
I187
sV\u55df
p7655
I52
sV\u4fe3
p7656
I4
sV\u86e9
p7657
I27
sV\u6768
p7658
I13105
sV\u596c
p7659
I2
sV\u9e6e
p7660
I1
sV\u72f1
p7661
I2045
sV\u5370
p7662
I29447
sV\u9072
p7663
I1
sV\u6ef9
p7664
I12
sV\u8c7a
p7665
I54
sV\u867e
p7666
I658
sV\u5a01
p7667
I24347
sV\u5c05
p7668
I2
sV\u5609
p7669
I5489
sV\u8d0f
p7670
I1
sV\u8713
p7671
I95
sV\u6092
p7672
I5
sV\u731b
p7673
I5112
sV\u5c9a
p7674
I321
sV\u919c
p7675
I1
sV\u751f
p7676
I367078
sV\u8ba0
p7677
I4
sV\u6127
p7678
I1047
sV\u87a8
p7679
I105
sV\u982d
p7680
I3
sV\u73b0
p7681
I227996
sV\u5733
p7682
I11122
sV\u75b4
p7683
I12
sV\u8e39
p7684
I67
sV\u803d
p7685
I635
sV\u7649
p7686
I1
sV\u94ca
p7687
I29
sV\u6251
p7688
I2471
sV\u7ad6
p7689
I742
sV\u955f
p7690
I1
sV\u8167
p7691
I32
sV\u62e6
p7692
I2652
sV\u95f4
p7693
I138789
sV\u6977
p7694
I315
sV\u8ff8
p7695
I207
sV\u637b
p7696
I68
sV\u81fc
p7697
I130
sV\u5883
p7698
I36492
sV\u9189
p7699
I1869
sV\u8f8d
p7700
I382
sV\u6e0c
p7701
I10
sV\u8591
p7702
I1
sV\u6410
p7703
I108
sV\u911e
p7704
I43
sV\u6da1
p7705
I951
sV\u61a9
p7706
I154
sV\u9cab
p7707
I56
sV\u5fad
p7708
I46
sV\u9aaf
p7709
I1
sV\u55b1
p7710
I85
sV\u90b3
p7711
I24
sV\u84bb
p7712
I1
sV\u6b3a
p7713
I2379
sV\u82bf
p7714
I3
sV\u5546
p7715
I86111
sV\u534a
p7716
I35516
sV\u60d3
p7717
I2
sV\u765c
p7718
I112
sV\u52df
p7719
I2584
sV\u6c60
p7720
I5300
sV\u8be5
p7721
I80870
sV\u6068
p7722
I2603
sV\u996e
p7723
I9530
sV\u75f1
p7724
I6
sV\u5470
p7725
I1
sV\u73f5
p7726
I10
sV\u8d76
p7727
I8075
sV\u67fd
p7728
I6
sV\u817e
p7729
I6521
sV\u5d01
p7730
I2
sV\u9803
p7731
I1
sV\u5b05
p7732
I1
sV\u9607
p7733
I2
sV\u7586
p7734
I3554
sV\u8c0b
p7735
I7652
sV\u4f0d
p7736
I5963
sV\u698e
p7737
I14
sV\u9898
p7738
I124055
sV\u741b
p7739
I187
sV\u5b9a
p7740
I182845
sV\u969c
p7741
I17566
sV\u8ca0
p7742
I2
sV\u8aa4
p7743
I1
sV\u6627
p7744
I746
sV\u7eac
p7745
I660
sV\u9531
p7746
I18
sV\u72b4
p7747
I10
sV\u66bc
p7748
I2
sV\u7d41
p7749
I4
sV\u95c6
p7750
I1
sV\u93ca
p7751
I1
sV\u6f4d
p7752
I779
sV\u89ce
p7753
I132
sV\u6551
p7754
I11994
sV\u87d2
p7755
I137
sV\u6355
p7756
I3325
sV\u9e57
p7757
I35
sV\u7dd6
p7758
I1
sV\u575d
p7759
I1089
sV\u8863
p7760
I10691
sV\u8667
p7761
I1
sV\u65e6
p7762
I10617
sV\u63ea
p7763
I321
sV\u59ee
p7764
I3
sV\u94f0
p7765
I71
sV\u88f8
p7766
I1975
sV\u627f
p7767
I27707
sV\u9c81
p7768
I11402
sV\u7d00
p7769
I4
sV\u5983
p7770
I1808
sV\u9a85
p7771
I170
sV\u7b04
p7772
I12
sV\u9089
p7773
I1
sV\u769d
p7774
I12
sV\u571c
p7775
I32
sV\u901e
p7776
I239
sV\u6ca1
p7777
I130666
sV\u8e22
p7778
I1733
sV\u8426
p7779
I132
sV\u822a
p7780
I43290
sV\u5ead
p7781
I15348
sV\u54b1
p7782
I2172
sV\u52b5
p7783
I5
sV\u79c3
p7784
I364
sV\u5e42
p7785
I17
sV\u9b44
p7786
I818
sV\u77c7
p7787
I4
sV\u5446
p7788
I2297
sV\u6dcb
p7789
I2155
sV\u524a
p7790
I2532
sV\u6bcf
p7791
I71833
sV\u8354
p7792
I390
sV\u5fd7
p7793
I35288
sV\u98d9
p7794
I847
sV\u55db
p7795
I2
sV\u53df
p7796
I33
sV\u6d60
p7797
I10
sV\u6b64
p7798
I136898
sV\u80e9
p7799
I1
sV\u6168
p7800
I1572
sV\u7eed
p7801
I45011
sV\u5f6c
p7802
I985
sV\u5570
p7803
I59
sV\u9672
p7804
I84
sV\u5374
p7805
I38429
sV\u68f9
p7806
I8
sV\u66fd
p7807
I4
sV\u5c01
p7808
I10888
sV\u7e82
p7809
I126
sV\u5a05
p7810
I398
sV\u9707
p7811
I6321
sV\u728a
p7812
I127
sV\u4e0d
p7813
I672643
sV\u8b0f
p7814
I3
sV\u8113
p7815
I412
sV\u7f17
p7816
I8
sV\u5c96
p7817
I153
sV\u9998
p7818
I2
sV\u5a9a
p7819
I879
sV\u4ea2
p7820
I621
sV\u8ba4
p7821
I88946
sV\u81a8
p7822
I1105
sV\u9e2d
p7823
I1553
sV\u4f37
p7824
I1
sV\u8839
p7825
I19
sV\u7c41
p7826
I1194
sV\u5bc4
p7827
I3223
sV\u94c6
p7828
I118
sV\u6e4d
p7829
I59
sV\u88ce
p7830
I4
sV\u7cd6
p7831
I6607
sV\u5859
p7832
I1
sV\u955b
p7833
I31
sV\u6ee2
p7834
I29
sV\u64e6
p7835
I3009
sV\u58ee
p7836
I4807
sV\u95f0
p7837
I86
sV\u7173
p7838
I8
sV\u89f8
p7839
I1
sV\u9985
p7840
I430
sV\u4e8b
p7841
I185771
sV\u6014
p7842
I97
sV\u5a18
p7843
I4093
sV\u759d
p7844
I83
sV\u931e
p7845
I2
sV\u6fa1
p7846
I1623
sV\u8d22
p7847
I33478
sV\u63a9
p7848
I2798
sV\u7b2e
p7849
I35
sV\u92b3
p7850
I1
sV\u7532
p7851
I12956
sV\u51b5
p7852
I56140
sV\u8cb7
p7853
I4
sV\u6f36
p7854
I3
sV\u80bf
p7855
I5719
sV\u7ac3
p7856
I2
sV\u6ecb
p7857
I7590
sV\u8c4c
p7858
I164
sV\u8650
p7859
I852
sV\u62d3
p7860
I5558
sV\u8054
p7861
I83508
sV\u56db
p7862
I63790
sV\u745c
p7863
I595
sV\u89e5
p7864
I38
sV\u6864
p7865
I7
sV\u83e9
p7866
I457
sV\u5c6c
p7867
I7
sV\u9572
p7868
I3
sV\u5074
p7869
I3
sV\u8f76
p7870
I180
sV\u6bf9
p7871
I1
sV\u5f01
p7872
I32
sV\u718a
p7873
I3342
sV\u9a98
p7874
I5
sV\u761b
p7875
I3
sV\u949c
p7876
I25
sV\u6a23
p7877
I5
sV\u88a4
p7878
I116
sV\u6427
p7879
I3
sV\u82a8
p7880
I10
sV\u5e2b
p7881
I1
sV\u5233
p7882
I1
sV\u853d
p7883
I1569
sV\u64bc
p7884
I1159
sV\u7945
p7885
I5
sV\u91ca
p7886
I10634
sV\u6d4d
p7887
I7
sV\u8bce
p7888
I3
sV\u6751
p7889
I26140
sV\u6155
p7890
I2700
sV\u5b59
p7891
I9701
sV\u965b
p7892
I286
sV\u73de
p7893
I79
sV\u5bee
p7894
I39
sV\u55f2
p7895
I92
sV\u90f4
p7896
I69
sV\u4ff6
p7897
I8
sV\u8af8
p7898
I1
sV\u84fc
p7899
I5
sV\u607f
p7900
I120
sV\u7f00
p7901
I510
sV\u5b83
p7902
I58299
sV\u9885
p7903
I515
sV\u5587
p7904
I727
sV\u4f8b
p7905
I35814
sV\u6d0c
p7906
I6
sV\u6710
p7907
I60
sV\u6114
p7908
I1
sV\u4f20
p7909
I58137
sV\u8c22
p7910
I11622
sV\u802a
p7911
I1
sV\u5cad
p7912
I2249
sV\u7a2e
p7913
I6
sV\u623e
p7914
I85
sV\u5c42
p7915
I28541
sV\u75c7
p7916
I13127
sV\u8d4c
p7917
I2525
sV\u8154
p7918
I3273
sV\u7b58
p7919
I3
sV\u94dd
p7920
I1886
sV\u755c
p7921
I770
sV\u88e5
p7922
I6
sV\u5d6c
p7923
I60
sV\u9a6e
p7924
I118
sV\u76f1
p7925
I10
sV\u5174
p7926
I26735
sV\u8e76
p7927
I101
sV\u827e
p7928
I8432
sV\u5e01
p7929
I13727
sV\u9b03
p7930
I63
sV\u9507
p7931
I1
sV\u7686
p7932
I3171
sV\u708a
p7933
I233
sV\u6492
p7934
I2443
sV\u5e96
p7935
I69
sV\u771b
p7936
I1
sV\u589a
p7937
I2
sV\u529e
p7938
I60514
sV\u6b23
p7939
I4861
sV\u83a8
p7940
I22
sV\u592f
p7941
I326
sV\u9631
p7942
I902
sV\u77b0
p7943
I205
sV\u9035
p7944
I92
sV\u843d
p7945
I26125
sV\u65bc
p7946
I761
sV\u7e41
p7947
I7060
sV\u7845
p7948
I1457
sV\u96c6
p7949
I62441
sV\u53c8
p7950
I56195
sV\u90ca
p7951
I2239
sV\u6055
p7952
I476
sV\u975b
p7953
I26
sV\u72de
p7954
I77
sV\u4e61
p7955
I12297
sV\u6ce2
p7956
I20415
sV\u66e6
p7957
I190
sV\u60ea
p7958
I3
sV\u796f
p7959
I352
sV\u5aee
p7960
I1
sV\u54f2
p7961
I3865
sV\u6d77
p7962
I129241
sV\u4ef6
p7963
I77046
sV\u8bf8
p7964
I7743
s.